CCS PCM C Compiler, Version 5.008, 5967               04-Oct-25 16:29

               Filename:   K:\Micro Project\5th Sem Micro Project\EIOT\main.lst

               ROM used:   3244 words (40%)
                           Largest free fragment is 2048
               RAM used:   10 (3%) at main() level
                           66 (18%) worst case
               Stack used: 5 locations
               Stack size: 8

*
0000:  MOVLW  08
0001:  MOVWF  0A
0002:  GOTO   09B
0003:  NOP
.................... #include <16F877A.h> 
.................... //////// Standard Header file for the PIC16F877A device //////////////// 
.................... #device PIC16F877A 
0004:  BCF    0A.0
0005:  BCF    0A.1
0006:  BCF    0A.2
0007:  ADDWF  02,F
0008:  RETLW  28
0009:  RETLW  0C
000A:  RETLW  01
000B:  RETLW  06
000C:  DATA 0C,10
000D:  DATA CD,24
000E:  DATA 43,29
000F:  DATA 4F,10
0010:  DATA 20,28
0011:  DATA D2,27
0012:  DATA CA,22
0013:  DATA 43,2A
0014:  DATA 20,10
0015:  DATA 00,00
0016:  DATA 20,10
0017:  DATA 20,10
0018:  DATA 20,10
0019:  DATA C5,24
001A:  DATA 4F,2A
001B:  DATA 20,10
001C:  DATA 20,10
001D:  DATA 20,10
001E:  DATA 00,01
001F:  DATA 0C,10
0020:  DATA A0,20
0021:  DATA 69,39
0022:  DATA 20,10
0023:  DATA D1,3A
0024:  DATA 61,36
0025:  DATA 69,3A
0026:  DATA 79,10
0027:  DATA 20,00
0028:  DATA A0,26
0029:  DATA 6F,37
002A:  DATA 69,3A
002B:  DATA 6F,39
002C:  DATA A0,29
002D:  DATA F9,39
002E:  DATA F4,32
002F:  DATA 6D,10
0030:  DATA 00,00
0031:  DATA 8C,26
0032:  DATA D1,18
0033:  DATA B3,1A
0034:  DATA 20,1D
0035:  DATA 20,00
0036:  DATA 50,28
0037:  DATA 4D,10
0038:  DATA 20,10
0039:  DATA 3A,10
003A:  DATA 25,17
003B:  DATA 32,33
003C:  DATA 00,00
003D:  DATA 0C,28
003E:  DATA 4D,19
003F:  DATA AE,1A
0040:  DATA 20,1D
0041:  DATA 20,00
0042:  DATA D6,27
0043:  DATA 4C,2A
0044:  DATA 20,10
0045:  DATA 3A,10
0046:  DATA 25,17
0047:  DATA 32,33
0048:  DATA 00,01
0049:  DATA 0C,2A
004A:  DATA C5,26
004B:  DATA 50,10
004C:  DATA 3A,10
004D:  DATA A5,3A
004E:  DATA AE,12
004F:  DATA 75,00
0050:  DATA C8,2A
0051:  DATA CD,24
0052:  DATA 20,1D
0053:  DATA A0,12
0054:  DATA 75,17
0055:  DATA A5,3A
0056:  DATA A5,12
0057:  DATA 00,01
0058:  DATA 8C,20
0059:  DATA 69,39
005A:  DATA A0,29
005B:  DATA F4,30
005C:  DATA F4,3A
005D:  DATA 73,10
005E:  DATA 3A,00
005F:  DATA 20,10
0060:  DATA A0,23
0061:  DATA CF,27
0062:  DATA 44,10
0063:  DATA 20,10
0064:  DATA 00,01
0065:  DATA A0,26
0066:  DATA 4F,22
0067:  DATA 45,29
0068:  DATA 41,2A
0069:  DATA 45,10
006A:  DATA 00,01
006B:  DATA 20,10
006C:  DATA 20,21
006D:  DATA 41,22
006E:  DATA A1,10
006F:  DATA 20,10
0070:  DATA 00,01
0071:  DATA 0C,23
0072:  DATA 41,27
0073:  DATA 20,1D
0074:  DATA 20,00
0075:  DATA 4F,27
0076:  DATA 20,00
0077:  DATA 4F,23
0078:  DATA 46,00
0079:  DATA 53,29
007A:  DATA 56,1D
007B:  DATA 39,18
007C:  DATA A5,31
007D:  DATA A0,20
007E:  DATA 20,00
007F:  DATA 53,29
0080:  DATA 56,1D
0081:  DATA B0,12
0082:  DATA 63,10
0083:  DATA 41,10
0084:  DATA 00,01
0085:  DATA 42,2D
0086:  DATA BA,27
0087:  DATA 4E,00
0088:  DATA 42,2D
0089:  DATA BA,27
008A:  DATA 46,23
008B:  DATA 00,01
008C:  DATA D0,26
008D:  DATA B2,1A
008E:  DATA BA,12
008F:  DATA EC,3A
0090:  DATA 2C,00
0091:  DATA CD,28
0092:  DATA B1,19
0093:  DATA 35,1D
0094:  DATA 25,36
0095:  DATA 75,16
0096:  DATA 00,01
0097:  DATA D4,22
0098:  DATA 4D,28
0099:  DATA BA,12
009A:  DATA 75,17
009B:  DATA A5,3A
009C:  DATA 2C,00
009D:  DATA C8,2A
009E:  DATA CD,24
009F:  DATA BA,12
00A0:  DATA 75,17
00A1:  DATA A5,3A
00A2:  DATA 2C,00
00A3:  DATA C6,20
00A4:  DATA 4E,1D
00A5:  DATA 25,32
00A6:  DATA 2C,00
00A7:  DATA D3,2B
00A8:  DATA 49,2A
00A9:  DATA 43,24
00AA:  DATA BA,12
00AB:  DATA 64,16
00AC:  DATA 00,01
00AD:  DATA D3,22
00AE:  DATA 52,2B
00AF:  DATA 4F,1D
00B0:  DATA 25,32
00B1:  DATA 2C,00
00B2:  DATA C2,2A
00B3:  DATA 5A,2D
00B4:  DATA 45,29
00B5:  DATA BA,12
00B6:  DATA 64,05
00B7:  DATA 00,00
*
0206:  MOVF   0B,W
0207:  MOVWF  43
0208:  BCF    0B.7
0209:  BSF    03.5
020A:  BSF    03.6
020B:  BSF    0C.7
020C:  BSF    0C.0
020D:  NOP
020E:  NOP
020F:  BCF    03.5
0210:  MOVF   0C,W
0211:  ANDLW  7F
0212:  BTFSC  03.2
0213:  GOTO   24D
0214:  BCF    03.6
0215:  MOVWF  44
0216:  BSF    03.6
0217:  MOVF   0D,W
0218:  BCF    03.6
0219:  MOVWF  45
021A:  BSF    03.6
021B:  MOVF   0F,W
021C:  BCF    03.6
021D:  MOVWF  46
021E:  MOVF   44,W
021F:  MOVWF  50
0220:  CALL   1DA
0221:  MOVF   45,W
0222:  BSF    03.6
0223:  MOVWF  0D
0224:  BCF    03.6
0225:  MOVF   46,W
0226:  BSF    03.6
0227:  MOVWF  0F
0228:  BSF    03.5
0229:  BSF    0C.7
022A:  BSF    0C.0
022B:  NOP
022C:  NOP
022D:  BCF    03.5
022E:  RLF    0C,W
022F:  RLF    0E,W
0230:  ANDLW  7F
0231:  BTFSC  03.2
0232:  GOTO   24D
0233:  BCF    03.6
0234:  MOVWF  44
0235:  BSF    03.6
0236:  MOVF   0D,W
0237:  BCF    03.6
0238:  MOVWF  45
0239:  BSF    03.6
023A:  MOVF   0F,W
023B:  BCF    03.6
023C:  MOVWF  46
023D:  MOVF   44,W
023E:  MOVWF  50
023F:  CALL   1DA
0240:  MOVF   45,W
0241:  BSF    03.6
0242:  MOVWF  0D
0243:  BCF    03.6
0244:  MOVF   46,W
0245:  BSF    03.6
0246:  MOVWF  0F
0247:  INCF   0D,F
0248:  BTFSC  03.2
0249:  INCF   0F,F
024A:  BCF    03.6
024B:  GOTO   209
024C:  BSF    03.6
024D:  BCF    03.6
024E:  BTFSC  43.7
024F:  BSF    0B.7
0250:  RETURN
0251:  MOVLW  8E
0252:  MOVWF  77
0253:  MOVF   44,W
0254:  MOVWF  78
0255:  MOVF   43,W
0256:  MOVWF  79
0257:  CLRF   7A
0258:  MOVF   78,F
0259:  BTFSS  03.2
025A:  GOTO   265
025B:  MOVF   79,W
025C:  MOVWF  78
025D:  CLRF   79
025E:  MOVLW  08
025F:  SUBWF  77,F
0260:  MOVF   78,F
0261:  BTFSS  03.2
0262:  GOTO   265
0263:  CLRF   77
0264:  GOTO   26D
0265:  BCF    03.0
0266:  BTFSC  78.7
0267:  GOTO   26C
0268:  RLF    79,F
0269:  RLF    78,F
026A:  DECF   77,F
026B:  GOTO   265
026C:  BCF    78.7
026D:  RETURN
026E:  MOVF   50,W
026F:  BTFSC  03.2
0270:  GOTO   2DE
0271:  MOVWF  58
0272:  MOVF   54,W
0273:  BTFSC  03.2
0274:  GOTO   2DE
0275:  ADDWF  58,F
0276:  BTFSC  03.0
0277:  GOTO   27F
0278:  MOVLW  7F
0279:  SUBWF  58,F
027A:  BTFSS  03.0
027B:  GOTO   2DE
027C:  BTFSC  03.2
027D:  GOTO   2DE
027E:  GOTO   283
027F:  MOVLW  81
0280:  ADDWF  58,F
0281:  BTFSC  03.0
0282:  GOTO   2DE
0283:  MOVF   58,W
0284:  MOVWF  77
0285:  CLRF   78
0286:  CLRF   79
0287:  CLRF   7A
0288:  MOVF   51,W
0289:  MOVWF  5C
028A:  BSF    5C.7
028B:  MOVF   52,W
028C:  MOVWF  5B
028D:  MOVF   53,W
028E:  MOVWF  5A
028F:  MOVLW  18
0290:  MOVWF  58
0291:  CLRF   59
0292:  BTFSS  5A.0
0293:  GOTO   2AC
0294:  MOVF   57,W
0295:  ADDWF  7A,F
0296:  BTFSS  03.0
0297:  GOTO   29E
0298:  INCF   79,F
0299:  BTFSS  03.2
029A:  GOTO   29E
029B:  INCF   78,F
029C:  BTFSC  03.2
029D:  BSF    59.7
029E:  MOVF   56,W
029F:  ADDWF  79,F
02A0:  BTFSS  03.0
02A1:  GOTO   2A5
02A2:  INCF   78,F
02A3:  BTFSC  03.2
02A4:  BSF    59.7
02A5:  MOVF   55,W
02A6:  MOVWF  52
02A7:  BSF    52.7
02A8:  MOVF   52,W
02A9:  ADDWF  78,F
02AA:  BTFSC  03.0
02AB:  BSF    59.7
02AC:  RLF    59,F
02AD:  RRF    78,F
02AE:  RRF    79,F
02AF:  RRF    7A,F
02B0:  RRF    5C,F
02B1:  RRF    5B,F
02B2:  RRF    5A,F
02B3:  BCF    03.0
02B4:  DECFSZ 58,F
02B5:  GOTO   291
02B6:  MOVLW  01
02B7:  ADDWF  77,F
02B8:  BTFSC  03.0
02B9:  GOTO   2DE
02BA:  BTFSC  78.7
02BB:  GOTO   2C3
02BC:  RLF    5C,F
02BD:  RLF    7A,F
02BE:  RLF    79,F
02BF:  RLF    78,F
02C0:  DECF   77,F
02C1:  BTFSC  03.2
02C2:  GOTO   2DE
02C3:  BTFSS  5C.7
02C4:  GOTO   2D4
02C5:  INCF   7A,F
02C6:  BTFSS  03.2
02C7:  GOTO   2D4
02C8:  INCF   79,F
02C9:  BTFSS  03.2
02CA:  GOTO   2D4
02CB:  INCF   78,F
02CC:  BTFSS  03.2
02CD:  GOTO   2D4
02CE:  RRF    78,F
02CF:  RRF    79,F
02D0:  RRF    7A,F
02D1:  INCF   77,F
02D2:  BTFSC  03.2
02D3:  GOTO   2DE
02D4:  MOVF   51,W
02D5:  MOVWF  59
02D6:  MOVF   55,W
02D7:  XORWF  59,F
02D8:  BTFSS  59.7
02D9:  GOTO   2DC
02DA:  BSF    78.7
02DB:  GOTO   2E2
02DC:  BCF    78.7
02DD:  GOTO   2E2
02DE:  CLRF   77
02DF:  CLRF   78
02E0:  CLRF   79
02E1:  CLRF   7A
02E2:  RETURN
02E3:  MOVF   47,W
02E4:  BTFSC  03.2
02E5:  GOTO   3A8
02E6:  MOVWF  53
02E7:  MOVF   4B,W
02E8:  BTFSC  03.2
02E9:  GOTO   3A8
02EA:  SUBWF  53,F
02EB:  BTFSS  03.0
02EC:  GOTO   2F2
02ED:  MOVLW  7F
02EE:  ADDWF  53,F
02EF:  BTFSC  03.0
02F0:  GOTO   3A8
02F1:  GOTO   2F8
02F2:  MOVLW  81
02F3:  SUBWF  53,F
02F4:  BTFSS  03.0
02F5:  GOTO   3A8
02F6:  BTFSC  03.2
02F7:  GOTO   3A8
02F8:  MOVF   53,W
02F9:  MOVWF  77
02FA:  CLRF   78
02FB:  CLRF   79
02FC:  CLRF   7A
02FD:  CLRF   52
02FE:  MOVF   48,W
02FF:  MOVWF  51
0300:  BSF    51.7
0301:  MOVF   49,W
0302:  MOVWF  50
0303:  MOVF   4A,W
0304:  MOVWF  4F
0305:  MOVLW  19
0306:  MOVWF  53
0307:  MOVF   4E,W
0308:  SUBWF  4F,F
0309:  BTFSC  03.0
030A:  GOTO   31B
030B:  MOVLW  01
030C:  SUBWF  50,F
030D:  BTFSC  03.0
030E:  GOTO   31B
030F:  SUBWF  51,F
0310:  BTFSC  03.0
0311:  GOTO   31B
0312:  SUBWF  52,F
0313:  BTFSC  03.0
0314:  GOTO   31B
0315:  INCF   52,F
0316:  INCF   51,F
0317:  INCF   50,F
0318:  MOVF   4E,W
0319:  ADDWF  4F,F
031A:  GOTO   34D
031B:  MOVF   4D,W
031C:  SUBWF  50,F
031D:  BTFSC  03.0
031E:  GOTO   336
031F:  MOVLW  01
0320:  SUBWF  51,F
0321:  BTFSC  03.0
0322:  GOTO   336
0323:  SUBWF  52,F
0324:  BTFSC  03.0
0325:  GOTO   336
0326:  INCF   52,F
0327:  INCF   51,F
0328:  MOVF   4D,W
0329:  ADDWF  50,F
032A:  MOVF   4E,W
032B:  ADDWF  4F,F
032C:  BTFSS  03.0
032D:  GOTO   34D
032E:  INCF   50,F
032F:  BTFSS  03.2
0330:  GOTO   34D
0331:  INCF   51,F
0332:  BTFSS  03.2
0333:  GOTO   34D
0334:  INCF   52,F
0335:  GOTO   34D
0336:  MOVF   4C,W
0337:  IORLW  80
0338:  SUBWF  51,F
0339:  BTFSC  03.0
033A:  GOTO   34C
033B:  MOVLW  01
033C:  SUBWF  52,F
033D:  BTFSC  03.0
033E:  GOTO   34C
033F:  INCF   52,F
0340:  MOVF   4C,W
0341:  IORLW  80
0342:  ADDWF  51,F
0343:  MOVF   4D,W
0344:  ADDWF  50,F
0345:  BTFSS  03.0
0346:  GOTO   32A
0347:  INCF   51,F
0348:  BTFSS  03.2
0349:  GOTO   32A
034A:  INCF   52,F
034B:  GOTO   32A
034C:  BSF    7A.0
034D:  DECFSZ 53,F
034E:  GOTO   350
034F:  GOTO   35B
0350:  BCF    03.0
0351:  RLF    4F,F
0352:  RLF    50,F
0353:  RLF    51,F
0354:  RLF    52,F
0355:  BCF    03.0
0356:  RLF    7A,F
0357:  RLF    79,F
0358:  RLF    78,F
0359:  RLF    54,F
035A:  GOTO   307
035B:  BTFSS  54.0
035C:  GOTO   363
035D:  BCF    03.0
035E:  RRF    78,F
035F:  RRF    79,F
0360:  RRF    7A,F
0361:  RRF    54,F
0362:  GOTO   366
0363:  DECF   77,F
0364:  BTFSC  03.2
0365:  GOTO   3A8
0366:  BTFSC  54.7
0367:  GOTO   38F
0368:  BCF    03.0
0369:  RLF    4F,F
036A:  RLF    50,F
036B:  RLF    51,F
036C:  RLF    52,F
036D:  MOVF   4E,W
036E:  SUBWF  4F,F
036F:  BTFSC  03.0
0370:  GOTO   37B
0371:  MOVLW  01
0372:  SUBWF  50,F
0373:  BTFSC  03.0
0374:  GOTO   37B
0375:  SUBWF  51,F
0376:  BTFSC  03.0
0377:  GOTO   37B
0378:  SUBWF  52,F
0379:  BTFSS  03.0
037A:  GOTO   39E
037B:  MOVF   4D,W
037C:  SUBWF  50,F
037D:  BTFSC  03.0
037E:  GOTO   386
037F:  MOVLW  01
0380:  SUBWF  51,F
0381:  BTFSC  03.0
0382:  GOTO   386
0383:  SUBWF  52,F
0384:  BTFSS  03.0
0385:  GOTO   39E
0386:  MOVF   4C,W
0387:  IORLW  80
0388:  SUBWF  51,F
0389:  BTFSC  03.0
038A:  GOTO   38F
038B:  MOVLW  01
038C:  SUBWF  52,F
038D:  BTFSS  03.0
038E:  GOTO   39E
038F:  INCF   7A,F
0390:  BTFSS  03.2
0391:  GOTO   39E
0392:  INCF   79,F
0393:  BTFSS  03.2
0394:  GOTO   39E
0395:  INCF   78,F
0396:  BTFSS  03.2
0397:  GOTO   39E
0398:  INCF   77,F
0399:  BTFSC  03.2
039A:  GOTO   3A8
039B:  RRF    78,F
039C:  RRF    79,F
039D:  RRF    7A,F
039E:  MOVF   48,W
039F:  MOVWF  53
03A0:  MOVF   4C,W
03A1:  XORWF  53,F
03A2:  BTFSS  53.7
03A3:  GOTO   3A6
03A4:  BSF    78.7
03A5:  GOTO   3AC
03A6:  BCF    78.7
03A7:  GOTO   3AC
03A8:  CLRF   77
03A9:  CLRF   78
03AA:  CLRF   79
03AB:  CLRF   7A
03AC:  RETURN
*
0479:  CLRF   4B
047A:  MOVF   04,W
047B:  MOVWF  4A
047C:  BCF    4B.0
047D:  BTFSC  03.7
047E:  BSF    4B.0
047F:  SWAPF  44,W
0480:  IORLW  F0
0481:  MOVWF  46
0482:  ADDWF  46,F
0483:  ADDLW  E2
0484:  MOVWF  47
0485:  ADDLW  32
0486:  MOVWF  49
0487:  MOVF   44,W
0488:  ANDLW  0F
0489:  ADDWF  47,F
048A:  ADDWF  47,F
048B:  ADDWF  49,F
048C:  ADDLW  E9
048D:  MOVWF  48
048E:  ADDWF  48,F
048F:  ADDWF  48,F
0490:  SWAPF  43,W
0491:  ANDLW  0F
0492:  ADDWF  48,F
0493:  ADDWF  49,F
0494:  RLF    48,F
0495:  RLF    49,F
0496:  COMF   49,F
0497:  RLF    49,F
0498:  MOVF   43,W
0499:  ANDLW  0F
049A:  ADDWF  49,F
049B:  RLF    46,F
049C:  MOVLW  07
049D:  MOVWF  45
049E:  MOVLW  0A
049F:  ADDWF  49,F
04A0:  DECF   48,F
04A1:  BTFSS  03.0
04A2:  GOTO   49F
04A3:  ADDWF  48,F
04A4:  DECF   47,F
04A5:  BTFSS  03.0
04A6:  GOTO   4A3
04A7:  ADDWF  47,F
04A8:  DECF   46,F
04A9:  BTFSS  03.0
04AA:  GOTO   4A7
04AB:  ADDWF  46,F
04AC:  DECF   45,F
04AD:  BTFSS  03.0
04AE:  GOTO   4AB
04AF:  MOVLW  45
04B0:  MOVWF  04
04B1:  BCF    03.7
04B2:  MOVLW  07
04B3:  ANDWF  4A,W
04B4:  BCF    4A.6
04B5:  ADDWF  04,F
04B6:  MOVLW  49
04B7:  SUBWF  04,W
04B8:  BTFSC  03.2
04B9:  BSF    4A.6
04BA:  MOVF   00,W
04BB:  MOVWF  77
04BC:  BTFSS  03.2
04BD:  GOTO   4C6
04BE:  BTFSC  4A.6
04BF:  GOTO   4C6
04C0:  BTFSC  4A.4
04C1:  GOTO   4D8
04C2:  BTFSC  4A.3
04C3:  GOTO   4C6
04C4:  MOVLW  20
04C5:  GOTO   4C9
04C6:  BSF    4A.3
04C7:  BCF    4A.4
04C8:  MOVLW  30
04C9:  ADDWF  77,F
04CA:  CLRF   44
04CB:  MOVF   04,W
04CC:  MOVWF  43
04CD:  BCF    44.0
04CE:  BTFSC  03.7
04CF:  BSF    44.0
04D0:  MOVF   77,W
04D1:  MOVWF  50
04D2:  CALL   1DA
04D3:  MOVF   43,W
04D4:  MOVWF  04
04D5:  BCF    03.7
04D6:  BTFSC  44.0
04D7:  BSF    03.7
04D8:  INCF   04,F
04D9:  BTFSS  4A.6
04DA:  GOTO   4B6
04DB:  RETURN
04DC:  MOVF   0B,W
04DD:  MOVWF  44
04DE:  BCF    0B.7
04DF:  BSF    03.5
04E0:  BSF    03.6
04E1:  BSF    0C.7
04E2:  BSF    0C.0
04E3:  NOP
04E4:  NOP
04E5:  BTFSC  03.0
04E6:  GOTO   50E
04E7:  BCF    03.5
04E8:  MOVF   0C,W
04E9:  ANDLW  7F
04EA:  BCF    03.6
04EB:  MOVWF  45
04EC:  BSF    03.6
04ED:  MOVF   0D,W
04EE:  BCF    03.6
04EF:  MOVWF  46
04F0:  BSF    03.6
04F1:  MOVF   0F,W
04F2:  BCF    03.6
04F3:  MOVWF  47
04F4:  MOVF   45,W
04F5:  MOVWF  50
04F6:  CALL   1DA
04F7:  MOVF   46,W
04F8:  BSF    03.6
04F9:  MOVWF  0D
04FA:  BCF    03.6
04FB:  MOVF   47,W
04FC:  BSF    03.6
04FD:  MOVWF  0F
04FE:  BSF    03.5
04FF:  BSF    0C.7
0500:  BSF    0C.0
0501:  NOP
0502:  NOP
0503:  BCF    03.5
0504:  BCF    03.6
0505:  DECFSZ 43,F
0506:  GOTO   508
0507:  GOTO   50B
0508:  BSF    03.5
0509:  BSF    03.6
050A:  GOTO   50E
050B:  GOTO   52D
050C:  BSF    03.5
050D:  BSF    03.6
050E:  BCF    03.5
050F:  RLF    0C,W
0510:  RLF    0E,W
0511:  ANDLW  7F
0512:  BCF    03.6
0513:  MOVWF  45
0514:  BSF    03.6
0515:  MOVF   0D,W
0516:  BCF    03.6
0517:  MOVWF  46
0518:  BSF    03.6
0519:  MOVF   0F,W
051A:  BCF    03.6
051B:  MOVWF  47
051C:  MOVF   45,W
051D:  MOVWF  50
051E:  CALL   1DA
051F:  MOVF   46,W
0520:  BSF    03.6
0521:  MOVWF  0D
0522:  BCF    03.6
0523:  MOVF   47,W
0524:  BSF    03.6
0525:  MOVWF  0F
0526:  INCF   0D,F
0527:  BTFSC  03.2
0528:  INCF   0F,F
0529:  BCF    03.0
052A:  BCF    03.6
052B:  DECFSZ 43,F
052C:  GOTO   4DF
052D:  BTFSC  44.7
052E:  BSF    0B.7
052F:  RETURN
0530:  BTFSC  03.1
0531:  GOTO   535
0532:  MOVLW  58
0533:  MOVWF  04
0534:  BCF    03.7
0535:  CLRF   77
0536:  CLRF   78
0537:  CLRF   79
0538:  CLRF   7A
0539:  CLRF   58
053A:  CLRF   59
053B:  CLRF   5A
053C:  CLRF   5B
053D:  MOVF   57,W
053E:  IORWF  56,W
053F:  IORWF  55,W
0540:  IORWF  54,W
0541:  BTFSC  03.2
0542:  GOTO   573
0543:  MOVLW  20
0544:  MOVWF  5C
0545:  BCF    03.0
0546:  RLF    50,F
0547:  RLF    51,F
0548:  RLF    52,F
0549:  RLF    53,F
054A:  RLF    58,F
054B:  RLF    59,F
054C:  RLF    5A,F
054D:  RLF    5B,F
054E:  MOVF   57,W
054F:  SUBWF  5B,W
0550:  BTFSS  03.2
0551:  GOTO   55C
0552:  MOVF   56,W
0553:  SUBWF  5A,W
0554:  BTFSS  03.2
0555:  GOTO   55C
0556:  MOVF   55,W
0557:  SUBWF  59,W
0558:  BTFSS  03.2
0559:  GOTO   55C
055A:  MOVF   54,W
055B:  SUBWF  58,W
055C:  BTFSS  03.0
055D:  GOTO   56D
055E:  MOVF   54,W
055F:  SUBWF  58,F
0560:  MOVF   55,W
0561:  BTFSS  03.0
0562:  INCFSZ 55,W
0563:  SUBWF  59,F
0564:  MOVF   56,W
0565:  BTFSS  03.0
0566:  INCFSZ 56,W
0567:  SUBWF  5A,F
0568:  MOVF   57,W
0569:  BTFSS  03.0
056A:  INCFSZ 57,W
056B:  SUBWF  5B,F
056C:  BSF    03.0
056D:  RLF    77,F
056E:  RLF    78,F
056F:  RLF    79,F
0570:  RLF    7A,F
0571:  DECFSZ 5C,F
0572:  GOTO   545
0573:  MOVF   58,W
0574:  MOVWF  00
0575:  INCF   04,F
0576:  MOVF   59,W
0577:  MOVWF  00
0578:  INCF   04,F
0579:  MOVF   5A,W
057A:  MOVWF  00
057B:  INCF   04,F
057C:  MOVF   5B,W
057D:  MOVWF  00
057E:  RETURN
057F:  MOVF   04,W
0580:  MOVWF  48
0581:  MOVF   47,W
0582:  MOVWF  4A
0583:  BTFSC  03.2
0584:  GOTO   59E
0585:  MOVF   46,W
0586:  MOVWF  53
0587:  MOVF   45,W
0588:  MOVWF  52
0589:  MOVF   44,W
058A:  MOVWF  51
058B:  MOVF   43,W
058C:  MOVWF  50
058D:  CLRF   57
058E:  CLRF   56
058F:  MOVLW  20
0590:  MOVWF  55
0591:  MOVLW  82
0592:  MOVWF  54
0593:  CALL   26E
0594:  MOVF   7A,W
0595:  MOVWF  46
0596:  MOVF   79,W
0597:  MOVWF  45
0598:  MOVF   78,W
0599:  MOVWF  44
059A:  MOVF   77,W
059B:  MOVWF  43
059C:  DECFSZ 4A,F
059D:  GOTO   585
059E:  MOVF   46,W
059F:  MOVWF  53
05A0:  MOVF   45,W
05A1:  MOVWF  52
05A2:  MOVF   44,W
05A3:  MOVWF  51
05A4:  MOVF   43,W
05A5:  MOVWF  50
05A6:  MOVF   50,W
05A7:  SUBLW  B6
05A8:  MOVWF  50
05A9:  CLRF   7A
05AA:  MOVF   51,W
05AB:  MOVWF  54
05AC:  BSF    51.7
05AD:  BCF    03.0
05AE:  RRF    51,F
05AF:  RRF    52,F
05B0:  RRF    53,F
05B1:  RRF    7A,F
05B2:  RRF    79,F
05B3:  RRF    78,F
05B4:  RRF    77,F
05B5:  DECFSZ 50,F
05B6:  GOTO   5AD
05B7:  BTFSS  54.7
05B8:  GOTO   5C4
05B9:  COMF   77,F
05BA:  COMF   78,F
05BB:  COMF   79,F
05BC:  COMF   7A,F
05BD:  INCF   77,F
05BE:  BTFSC  03.2
05BF:  INCF   78,F
05C0:  BTFSC  03.2
05C1:  INCF   79,F
05C2:  BTFSC  03.2
05C3:  INCF   7A,F
05C4:  MOVF   7A,W
05C5:  MOVWF  46
05C6:  MOVF   79,W
05C7:  MOVWF  45
05C8:  MOVF   78,W
05C9:  MOVWF  44
05CA:  MOVF   77,W
05CB:  MOVWF  43
05CC:  BTFSS  46.7
05CD:  GOTO   5DB
05CE:  DECF   48,F
05CF:  BSF    48.5
05D0:  COMF   43,F
05D1:  COMF   44,F
05D2:  COMF   45,F
05D3:  COMF   46,F
05D4:  INCF   43,F
05D5:  BTFSC  03.2
05D6:  INCF   44,F
05D7:  BTFSC  03.2
05D8:  INCF   45,F
05D9:  BTFSC  03.2
05DA:  INCF   46,F
05DB:  MOVLW  3B
05DC:  MOVWF  4F
05DD:  MOVLW  9A
05DE:  MOVWF  4E
05DF:  MOVLW  CA
05E0:  MOVWF  4D
05E1:  CLRF   4C
05E2:  MOVLW  0A
05E3:  MOVWF  4A
05E4:  MOVF   47,W
05E5:  BTFSC  03.2
05E6:  INCF   48,F
05E7:  BSF    03.1
05E8:  MOVLW  43
05E9:  MOVWF  04
05EA:  BCF    03.7
05EB:  MOVF   46,W
05EC:  MOVWF  53
05ED:  MOVF   45,W
05EE:  MOVWF  52
05EF:  MOVF   44,W
05F0:  MOVWF  51
05F1:  MOVF   43,W
05F2:  MOVWF  50
05F3:  MOVF   4F,W
05F4:  MOVWF  57
05F5:  MOVF   4E,W
05F6:  MOVWF  56
05F7:  MOVF   4D,W
05F8:  MOVWF  55
05F9:  MOVF   4C,W
05FA:  MOVWF  54
05FB:  CALL   530
05FC:  MOVF   78,W
05FD:  MOVF   77,F
05FE:  BTFSS  03.2
05FF:  GOTO   613
0600:  INCF   47,W
0601:  SUBWF  4A,W
0602:  BTFSC  03.2
0603:  GOTO   613
0604:  MOVF   48,W
0605:  BTFSC  03.2
0606:  GOTO   615
0607:  ANDLW  0F
0608:  SUBWF  4A,W
0609:  BTFSC  03.2
060A:  GOTO   60D
060B:  BTFSC  03.0
060C:  GOTO   645
060D:  BTFSC  48.7
060E:  GOTO   645
060F:  BTFSC  48.6
0610:  GOTO   615
0611:  MOVLW  20
0612:  GOTO   641
0613:  MOVLW  20
0614:  ANDWF  48,F
0615:  BTFSS  48.5
0616:  GOTO   623
0617:  BCF    48.5
0618:  MOVF   47,W
0619:  BTFSS  03.2
061A:  DECF   48,F
061B:  MOVF   77,W
061C:  MOVWF  48
061D:  MOVLW  2D
061E:  MOVWF  50
061F:  CALL   1DA
0620:  MOVF   48,W
0621:  MOVWF  77
0622:  CLRF   48
0623:  MOVF   47,W
0624:  SUBWF  4A,W
0625:  BTFSS  03.2
0626:  GOTO   631
0627:  MOVF   77,W
0628:  MOVWF  48
0629:  MOVLW  2E
062A:  MOVWF  50
062B:  CALL   1DA
062C:  MOVF   48,W
062D:  MOVWF  77
062E:  MOVLW  20
062F:  ANDWF  48,F
0630:  MOVLW  00
0631:  MOVLW  30
0632:  BTFSS  48.5
0633:  GOTO   641
0634:  BCF    48.5
0635:  MOVF   47,W
0636:  BTFSS  03.2
0637:  DECF   48,F
0638:  MOVF   77,W
0639:  MOVWF  48
063A:  MOVLW  2D
063B:  MOVWF  50
063C:  CALL   1DA
063D:  MOVF   48,W
063E:  MOVWF  77
063F:  CLRF   48
0640:  MOVLW  30
0641:  ADDWF  77,F
0642:  MOVF   77,W
0643:  MOVWF  50
0644:  CALL   1DA
0645:  BCF    03.1
0646:  MOVF   4F,W
0647:  MOVWF  53
0648:  MOVF   4E,W
0649:  MOVWF  52
064A:  MOVF   4D,W
064B:  MOVWF  51
064C:  MOVF   4C,W
064D:  MOVWF  50
064E:  CLRF   57
064F:  CLRF   56
0650:  CLRF   55
0651:  MOVLW  0A
0652:  MOVWF  54
0653:  CALL   530
0654:  MOVF   7A,W
0655:  MOVWF  4F
0656:  MOVF   79,W
0657:  MOVWF  4E
0658:  MOVF   78,W
0659:  MOVWF  4D
065A:  MOVF   77,W
065B:  MOVWF  4C
065C:  DECFSZ 4A,F
065D:  GOTO   5E7
065E:  RETURN
*
0672:  MOVLW  20
0673:  MOVWF  56
0674:  CLRF   52
0675:  CLRF   53
0676:  CLRF   54
0677:  CLRF   55
0678:  MOVF   4D,W
0679:  MOVWF  7A
067A:  MOVF   4C,W
067B:  MOVWF  79
067C:  MOVF   4B,W
067D:  MOVWF  78
067E:  MOVF   4A,W
067F:  MOVWF  77
0680:  BCF    03.0
0681:  BTFSS  77.0
0682:  GOTO   691
0683:  MOVF   4E,W
0684:  ADDWF  52,F
0685:  MOVF   4F,W
0686:  BTFSC  03.0
0687:  INCFSZ 4F,W
0688:  ADDWF  53,F
0689:  MOVF   50,W
068A:  BTFSC  03.0
068B:  INCFSZ 50,W
068C:  ADDWF  54,F
068D:  MOVF   51,W
068E:  BTFSC  03.0
068F:  INCFSZ 51,W
0690:  ADDWF  55,F
0691:  RRF    55,F
0692:  RRF    54,F
0693:  RRF    53,F
0694:  RRF    52,F
0695:  RRF    7A,F
0696:  RRF    79,F
0697:  RRF    78,F
0698:  RRF    77,F
0699:  DECFSZ 56,F
069A:  GOTO   680
*
06E1:  MOVF   4B,W
06E2:  CLRF   78
06E3:  SUBWF  4A,W
06E4:  BTFSC  03.0
06E5:  GOTO   6E9
06E6:  MOVF   4A,W
06E7:  MOVWF  77
06E8:  GOTO   6F5
06E9:  CLRF   77
06EA:  MOVLW  08
06EB:  MOVWF  4C
06EC:  RLF    4A,F
06ED:  RLF    77,F
06EE:  MOVF   4B,W
06EF:  SUBWF  77,W
06F0:  BTFSC  03.0
06F1:  MOVWF  77
06F2:  RLF    78,F
06F3:  DECFSZ 4C,F
06F4:  GOTO   6EC
06F5:  RETURN
06F6:  MOVF   78,W
06F7:  MOVF   43,W
06F8:  MOVWF  4A
06F9:  MOVLW  64
06FA:  MOVWF  4B
06FB:  CALL   6E1
06FC:  MOVF   77,W
06FD:  MOVWF  43
06FE:  MOVF   78,W
06FF:  MOVLW  30
0700:  BTFSS  03.2
0701:  GOTO   709
0702:  BTFSS  44.1
0703:  GOTO   710
0704:  BTFSC  44.3
0705:  GOTO   710
0706:  BTFSC  44.4
0707:  MOVLW  20
0708:  GOTO   70C
0709:  BCF    44.3
070A:  BCF    44.4
070B:  BSF    44.0
070C:  ADDWF  78,F
070D:  MOVF   78,W
070E:  MOVWF  50
070F:  CALL   1DA
0710:  MOVF   43,W
0711:  MOVWF  4A
0712:  MOVLW  0A
0713:  MOVWF  4B
0714:  CALL   6E1
0715:  MOVF   77,W
0716:  MOVWF  43
0717:  MOVF   78,W
0718:  MOVLW  30
0719:  BTFSS  03.2
071A:  GOTO   721
071B:  BTFSC  44.3
071C:  GOTO   725
071D:  BTFSS  44.0
071E:  GOTO   725
071F:  BTFSC  44.4
0720:  MOVLW  20
0721:  ADDWF  78,F
0722:  MOVF   78,W
0723:  MOVWF  50
0724:  CALL   1DA
0725:  MOVLW  30
0726:  ADDWF  43,F
0727:  MOVF   43,W
0728:  MOVWF  50
0729:  CALL   1DA
072A:  RETURN
072B:  MOVF   0B,W
072C:  MOVWF  45
072D:  BCF    0B.7
072E:  BSF    03.5
072F:  BSF    03.6
0730:  BSF    0C.7
0731:  BSF    0C.0
0732:  NOP
0733:  NOP
0734:  BTFSC  03.0
0735:  GOTO   75E
0736:  BCF    03.5
0737:  MOVF   0C,W
0738:  ANDLW  7F
0739:  BCF    03.6
073A:  MOVWF  46
073B:  BSF    03.6
073C:  MOVF   0D,W
073D:  BCF    03.6
073E:  MOVWF  47
073F:  BSF    03.6
0740:  MOVF   0F,W
0741:  BCF    03.6
0742:  MOVWF  48
0743:  MOVF   46,W
0744:  BTFSS  0C.4
0745:  GOTO   744
0746:  MOVWF  19
0747:  MOVF   47,W
0748:  BSF    03.6
0749:  MOVWF  0D
074A:  BCF    03.6
074B:  MOVF   48,W
074C:  BSF    03.6
074D:  MOVWF  0F
074E:  BSF    03.5
074F:  BSF    0C.7
0750:  BSF    0C.0
0751:  NOP
0752:  NOP
0753:  BCF    03.5
0754:  BCF    03.6
0755:  DECFSZ 44,F
0756:  GOTO   758
0757:  GOTO   75B
0758:  BSF    03.5
0759:  BSF    03.6
075A:  GOTO   75E
075B:  GOTO   77E
075C:  BSF    03.5
075D:  BSF    03.6
075E:  BCF    03.5
075F:  RLF    0C,W
0760:  RLF    0E,W
0761:  ANDLW  7F
0762:  BCF    03.6
0763:  MOVWF  46
0764:  BSF    03.6
0765:  MOVF   0D,W
0766:  BCF    03.6
0767:  MOVWF  47
0768:  BSF    03.6
0769:  MOVF   0F,W
076A:  BCF    03.6
076B:  MOVWF  48
076C:  MOVF   46,W
076D:  BTFSS  0C.4
076E:  GOTO   76D
076F:  MOVWF  19
0770:  MOVF   47,W
0771:  BSF    03.6
0772:  MOVWF  0D
0773:  BCF    03.6
0774:  MOVF   48,W
0775:  BSF    03.6
0776:  MOVWF  0F
0777:  INCF   0D,F
0778:  BTFSC  03.2
0779:  INCF   0F,F
077A:  BCF    03.0
077B:  BCF    03.6
077C:  DECFSZ 44,F
077D:  GOTO   72E
077E:  BTFSC  45.7
077F:  BSF    0B.7
0780:  RETURN
0781:  CLRF   4B
0782:  MOVF   04,W
0783:  MOVWF  4A
0784:  BCF    4B.0
0785:  BTFSC  03.7
0786:  BSF    4B.0
0787:  SWAPF  44,W
0788:  IORLW  F0
0789:  MOVWF  46
078A:  ADDWF  46,F
078B:  ADDLW  E2
078C:  MOVWF  47
078D:  ADDLW  32
078E:  MOVWF  49
078F:  MOVF   44,W
0790:  ANDLW  0F
0791:  ADDWF  47,F
0792:  ADDWF  47,F
0793:  ADDWF  49,F
0794:  ADDLW  E9
0795:  MOVWF  48
0796:  ADDWF  48,F
0797:  ADDWF  48,F
0798:  SWAPF  43,W
0799:  ANDLW  0F
079A:  ADDWF  48,F
079B:  ADDWF  49,F
079C:  RLF    48,F
079D:  RLF    49,F
079E:  COMF   49,F
079F:  RLF    49,F
07A0:  MOVF   43,W
07A1:  ANDLW  0F
07A2:  ADDWF  49,F
07A3:  RLF    46,F
07A4:  MOVLW  07
07A5:  MOVWF  45
07A6:  MOVLW  0A
07A7:  ADDWF  49,F
07A8:  DECF   48,F
07A9:  BTFSS  03.0
07AA:  GOTO   7A7
07AB:  ADDWF  48,F
07AC:  DECF   47,F
07AD:  BTFSS  03.0
07AE:  GOTO   7AB
07AF:  ADDWF  47,F
07B0:  DECF   46,F
07B1:  BTFSS  03.0
07B2:  GOTO   7AF
07B3:  ADDWF  46,F
07B4:  DECF   45,F
07B5:  BTFSS  03.0
07B6:  GOTO   7B3
07B7:  MOVLW  45
07B8:  MOVWF  04
07B9:  BCF    03.7
07BA:  MOVLW  07
07BB:  ANDWF  4A,W
07BC:  BCF    4A.6
07BD:  ADDWF  04,F
07BE:  MOVLW  49
07BF:  SUBWF  04,W
07C0:  BTFSC  03.2
07C1:  BSF    4A.6
07C2:  MOVF   00,W
07C3:  MOVWF  77
07C4:  BTFSS  03.2
07C5:  GOTO   7CE
07C6:  BTFSC  4A.6
07C7:  GOTO   7CE
07C8:  BTFSC  4A.4
07C9:  GOTO   7D6
07CA:  BTFSC  4A.3
07CB:  GOTO   7CE
07CC:  MOVLW  20
07CD:  GOTO   7D1
07CE:  BSF    4A.3
07CF:  BCF    4A.4
07D0:  MOVLW  30
07D1:  ADDWF  77,F
07D2:  MOVF   77,W
07D3:  BTFSS  0C.4
07D4:  GOTO   7D3
07D5:  MOVWF  19
07D6:  INCF   04,F
07D7:  BTFSS  4A.6
07D8:  GOTO   7BE
07D9:  RETURN
*
0800:  MOVF   78,W
0801:  MOVF   43,W
0802:  MOVWF  4A
0803:  MOVLW  64
0804:  MOVWF  4B
0805:  BCF    0A.3
0806:  CALL   6E1
0807:  BSF    0A.3
0808:  MOVF   77,W
0809:  MOVWF  43
080A:  MOVF   78,W
080B:  MOVLW  30
080C:  BTFSS  03.2
080D:  GOTO   015
080E:  BTFSS  44.1
080F:  GOTO   01D
0810:  BTFSC  44.3
0811:  GOTO   01D
0812:  BTFSC  44.4
0813:  MOVLW  20
0814:  GOTO   018
0815:  BCF    44.3
0816:  BCF    44.4
0817:  BSF    44.0
0818:  ADDWF  78,F
0819:  MOVF   78,W
081A:  BTFSS  0C.4
081B:  GOTO   01A
081C:  MOVWF  19
081D:  MOVF   43,W
081E:  MOVWF  4A
081F:  MOVLW  0A
0820:  MOVWF  4B
0821:  BCF    0A.3
0822:  CALL   6E1
0823:  BSF    0A.3
0824:  MOVF   77,W
0825:  MOVWF  43
0826:  MOVF   78,W
0827:  MOVLW  30
0828:  BTFSS  03.2
0829:  GOTO   030
082A:  BTFSC  44.3
082B:  GOTO   035
082C:  BTFSS  44.0
082D:  GOTO   035
082E:  BTFSC  44.4
082F:  MOVLW  20
0830:  ADDWF  78,F
0831:  MOVF   78,W
0832:  BTFSS  0C.4
0833:  GOTO   032
0834:  MOVWF  19
0835:  MOVLW  30
0836:  ADDWF  43,F
0837:  MOVF   43,W
0838:  BTFSS  0C.4
0839:  GOTO   038
083A:  MOVWF  19
083B:  RETURN
083C:  MOVLW  20
083D:  BTFSS  45.4
083E:  MOVLW  30
083F:  MOVWF  46
0840:  MOVF   44,W
0841:  MOVWF  77
0842:  BTFSS  44.7
0843:  GOTO   04C
0844:  COMF   77,F
0845:  INCF   77,F
0846:  MOVF   77,W
0847:  MOVWF  44
0848:  MOVLW  2D
0849:  MOVWF  46
084A:  BSF    45.7
084B:  BSF    45.0
084C:  MOVF   44,W
084D:  MOVWF  4A
084E:  MOVLW  64
084F:  MOVWF  4B
0850:  BCF    0A.3
0851:  CALL   6E1
0852:  BSF    0A.3
0853:  MOVF   77,W
0854:  MOVWF  44
0855:  MOVLW  30
0856:  ADDWF  78,W
0857:  MOVWF  47
0858:  MOVF   44,W
0859:  MOVWF  4A
085A:  MOVLW  0A
085B:  MOVWF  4B
085C:  BCF    0A.3
085D:  CALL   6E1
085E:  BSF    0A.3
085F:  MOVLW  30
0860:  ADDWF  77,W
0861:  MOVWF  49
0862:  MOVLW  30
0863:  ADDWF  78,W
0864:  MOVWF  48
0865:  MOVF   46,W
0866:  MOVWF  77
0867:  MOVLW  30
0868:  SUBWF  47,W
0869:  BTFSC  03.2
086A:  GOTO   06F
086B:  BSF    45.1
086C:  BTFSC  45.7
086D:  BSF    45.2
086E:  GOTO   083
086F:  MOVF   46,W
0870:  MOVWF  47
0871:  MOVLW  20
0872:  MOVWF  46
0873:  MOVLW  30
0874:  SUBWF  48,W
0875:  BTFSC  03.2
0876:  GOTO   07B
0877:  BSF    45.0
0878:  BTFSC  45.7
0879:  BSF    45.1
087A:  GOTO   083
087B:  BTFSS  03.2
087C:  BSF    45.0
087D:  BTFSS  03.2
087E:  GOTO   083
087F:  MOVF   47,W
0880:  MOVWF  48
0881:  MOVLW  20
0882:  MOVWF  47
0883:  BTFSC  45.2
0884:  GOTO   08A
0885:  BTFSC  45.1
0886:  GOTO   08E
0887:  BTFSC  45.0
0888:  GOTO   092
0889:  GOTO   096
088A:  MOVF   46,W
088B:  BTFSS  0C.4
088C:  GOTO   08B
088D:  MOVWF  19
088E:  MOVF   47,W
088F:  BTFSS  0C.4
0890:  GOTO   08F
0891:  MOVWF  19
0892:  MOVF   48,W
0893:  BTFSS  0C.4
0894:  GOTO   093
0895:  MOVWF  19
0896:  MOVF   49,W
0897:  BTFSS  0C.4
0898:  GOTO   097
0899:  MOVWF  19
089A:  RETURN
....................  
.................... #list 
....................  
.................... #device ADC=10   // 10-bit ADC 
.................... #FUSES NOWDT, PUT, NOBROWNOUT, NOLVP, HS   // HS for 20 MHz crystal 
.................... #use delay(crystal=20MHz) 
*
00B8:  MOVLW  51
00B9:  MOVWF  04
00BA:  BCF    03.7
00BB:  MOVF   00,W
00BC:  BTFSC  03.2
00BD:  GOTO   0CB
00BE:  MOVLW  06
00BF:  MOVWF  78
00C0:  CLRF   77
00C1:  DECFSZ 77,F
00C2:  GOTO   0C1
00C3:  DECFSZ 78,F
00C4:  GOTO   0C0
00C5:  MOVLW  7B
00C6:  MOVWF  77
00C7:  DECFSZ 77,F
00C8:  GOTO   0C7
00C9:  DECFSZ 00,F
00CA:  GOTO   0BE
00CB:  RETURN
*
03AD:  MOVLW  03
03AE:  SUBWF  49,F
03AF:  BTFSS  03.0
03B0:  GOTO   3BB
03B1:  MOVLW  49
03B2:  MOVWF  04
03B3:  BCF    03.7
03B4:  MOVF   00,W
03B5:  BTFSC  03.2
03B6:  GOTO   3BB
03B7:  GOTO   3B9
03B8:  GOTO   3B9
03B9:  DECFSZ 00,F
03BA:  GOTO   3B8
03BB:  RETURN
.................... #use rs232(baud=9600, xmit=PIN_C6, rcv=PIN_C7, bits=8, parity=N, stop=1) 
....................  
....................  
.................... // ---- Hardware connections ---- 
.................... #bit SERVO   = 0x08.0   // RD0 - Servo 
.................... #bit BUTTON  = 0x08.3   // RD3 - Manual Servo switch 
.................... #bit FAN     = 0x08.2   // RD2 - Fan 
.................... #bit SWITCH1 = 0x08.1   // RD1 - Manual Fan switch 
.................... #bit LED_GREEN  = 0x08.4   // RD4 
.................... #bit LED_YELLOW = 0x08.5   // RD5 
.................... #bit LED_RED    = 0x08.6   // RD6 
.................... #bit BUZZER     = 0x08.7   // RD7 
....................  
.................... // ---- LCD connections ---- 
.................... #define LCD_ENABLE_PIN  PIN_B2 
.................... #define LCD_RS_PIN      PIN_B0 
.................... #define LCD_RW_PIN      PIN_B1 
.................... #define LCD_DATA4       PIN_B4 
.................... #define LCD_DATA5       PIN_B5 
.................... #define LCD_DATA6       PIN_B6 
.................... #define LCD_DATA7       PIN_B7 
.................... #include <lcd.c> 
.................... /////////////////////////////////////////////////////////////////////////////// 
.................... ////                             LCD.C                                     //// 
.................... ////                 Driver for common LCD modules                         //// 
.................... ////                                                                       //// 
.................... ////  lcd_init()   Must be called before any other function.               //// 
.................... ////                                                                       //// 
.................... ////  lcd_putc(c)  Will display c on the next position of the LCD.         //// 
.................... ////                 \a  Set cursor position to upper left                 //// 
.................... ////                 \f  Clear display, set cursor to upper left           //// 
.................... ////                 \n  Go to start of second line                        //// 
.................... ////                 \b  Move back one position                            //// 
.................... ////              If LCD_EXTENDED_NEWLINE is defined, the \n character     //// 
.................... ////              will erase all remanining characters on the current      //// 
.................... ////              line, and move the cursor to the beginning of the next   //// 
.................... ////              line.                                                    //// 
.................... ////              If LCD_EXTENDED_NEWLINE is defined, the \r character     //// 
.................... ////              will move the cursor to the start of the current         //// 
.................... ////              line.                                                    //// 
.................... ////                                                                       //// 
.................... ////  lcd_gotoxy(x,y) Set write position on LCD (upper left is 1,1)        //// 
.................... ////                                                                       //// 
.................... ////  lcd_getc(x,y)   Returns character at position x,y on LCD             //// 
.................... ////                                                                       //// 
.................... ////  lcd_cursor_on(int1 on)   Turn the cursor on (on=TRUE) or off         //// 
.................... ////              (on=FALSE).                                              //// 
.................... ////                                                                       //// 
.................... ////  lcd_set_cgram_char(w, *p)   Write a custom character to the CGRAM.   //// 
.................... ////                                                                       //// 
.................... ////                                                                       //// 
.................... ////  CONFIGURATION                                                        //// 
.................... ////  The LCD can be configured in one of two ways: a.) port access or     //// 
.................... ////  b.) pin access.  Port access requires the entire 7 bit interface     //// 
.................... ////  connected to one GPIO port, and the data bits (D4:D7 of the LCD)     //// 
.................... ////  connected to sequential pins on the GPIO.  Pin access                //// 
.................... ////  has no requirements, all 7 bits of the control interface can         //// 
.................... ////  can be connected to any GPIO using several ports.                    //// 
.................... ////                                                                       //// 
.................... ////  To use port access, #define LCD_DATA_PORT to the SFR location of     //// 
.................... ////  of the GPIO port that holds the interface, -AND- edit LCD_PIN_MAP    //// 
.................... ////  of this file to configure the pin order.  If you are using a         //// 
.................... ////  baseline PIC (PCB), then LCD_OUTPUT_MAP and LCD_INPUT_MAP also must  //// 
.................... ////  be defined.                                                          //// 
.................... ////                                                                       //// 
.................... ////  Example of port access:                                              //// 
.................... ////     #define LCD_DATA_PORT getenv("SFR:PORTD")                         //// 
.................... ////                                                                       //// 
.................... ////  To use pin access, the following pins must be defined:               //// 
.................... ////     LCD_ENABLE_PIN                                                    //// 
.................... ////     LCD_RS_PIN                                                        //// 
.................... ////     LCD_RW_PIN                                                        //// 
.................... ////     LCD_DATA4                                                         //// 
.................... ////     LCD_DATA5                                                         //// 
.................... ////     LCD_DATA6                                                         //// 
.................... ////     LCD_DATA7                                                         //// 
.................... ////                                                                       //// 
.................... ////  Example of pin access:                                               //// 
.................... ////     #define LCD_ENABLE_PIN  PIN_E0                                    //// 
.................... ////     #define LCD_RS_PIN      PIN_E1                                    //// 
.................... ////     #define LCD_RW_PIN      PIN_E2                                    //// 
.................... ////     #define LCD_DATA4       PIN_D4                                    //// 
.................... ////     #define LCD_DATA5       PIN_D5                                    //// 
.................... ////     #define LCD_DATA6       PIN_D6                                    //// 
.................... ////     #define LCD_DATA7       PIN_D7                                    //// 
.................... ////                                                                       //// 
.................... /////////////////////////////////////////////////////////////////////////////// 
.................... ////        (C) Copyright 1996,2010 Custom Computer Services           //// 
.................... //// This source code may only be used by licensed users of the CCS C  //// 
.................... //// compiler.  This source code may only be distributed to other      //// 
.................... //// licensed users of the CCS C compiler.  No other use, reproduction //// 
.................... //// or distribution is permitted without written permission.          //// 
.................... //// Derivative programs created using this software in object code    //// 
.................... //// form are not restricted in any way.                               //// 
.................... /////////////////////////////////////////////////////////////////////////// 
....................  
.................... #ifndef __LCD_C__ 
.................... #define __LCD_C__ 
....................  
.................... // define the pinout. 
.................... // only required if port access is being used. 
.................... typedef struct   
.................... {                            // This structure is overlayed 
....................    int1 enable;           // on to an I/O port to gain 
....................    int1 rs;               // access to the LCD pins. 
....................    int1 rw;               // The bits are allocated from 
....................    int1 unused;           // low order up.  ENABLE will 
....................    unsigned int     data : 4;         // be LSB pin of that port. 
....................   #if defined(__PCD__)       // The port used will be LCD_DATA_PORT. 
....................    unsigned int    reserved: 8; 
....................   #endif 
.................... } LCD_PIN_MAP; 
....................  
.................... // this is to improve compatability with previous LCD drivers that accepted 
.................... // a define labeled 'use_portb_lcd' that configured the LCD onto port B. 
.................... #if ((defined(use_portb_lcd)) && (use_portb_lcd==TRUE)) 
....................  #define LCD_DATA_PORT getenv("SFR:PORTB") 
.................... #endif 
....................  
.................... #if defined(__PCB__) 
....................    // these definitions only need to be modified for baseline PICs. 
....................    // all other PICs use LCD_PIN_MAP or individual LCD_xxx pin definitions. 
.................... /*                                    EN, RS,   RW,   UNUSED,  DATA  */ 
....................  const LCD_PIN_MAP LCD_OUTPUT_MAP =  {0,  0,    0,    0,       0}; 
....................  const LCD_PIN_MAP LCD_INPUT_MAP =   {0,  0,    0,    0,       0xF}; 
.................... #endif 
....................  
.................... ////////////////////// END CONFIGURATION /////////////////////////////////// 
....................  
.................... #ifndef LCD_ENABLE_PIN 
....................    #define lcd_output_enable(x) lcdlat.enable=x 
....................    #define lcd_enable_tris()   lcdtris.enable=0 
.................... #else 
....................    #define lcd_output_enable(x) output_bit(LCD_ENABLE_PIN, x) 
....................    #define lcd_enable_tris()  output_drive(LCD_ENABLE_PIN) 
.................... #endif 
....................  
.................... #ifndef LCD_RS_PIN 
....................    #define lcd_output_rs(x) lcdlat.rs=x 
....................    #define lcd_rs_tris()   lcdtris.rs=0 
.................... #else 
....................    #define lcd_output_rs(x) output_bit(LCD_RS_PIN, x) 
....................    #define lcd_rs_tris()  output_drive(LCD_RS_PIN) 
.................... #endif 
....................  
.................... #ifndef LCD_RW_PIN 
....................    #define lcd_output_rw(x) lcdlat.rw=x 
....................    #define lcd_rw_tris()   lcdtris.rw=0 
.................... #else 
....................    #define lcd_output_rw(x) output_bit(LCD_RW_PIN, x) 
....................    #define lcd_rw_tris()  output_drive(LCD_RW_PIN) 
.................... #endif 
....................  
.................... // original version of this library incorrectly labeled LCD_DATA0 as LCD_DATA4, 
.................... // LCD_DATA1 as LCD_DATA5, and so on.  this block of code makes the driver 
.................... // compatible with any code written for the original library 
.................... #if (defined(LCD_DATA0) && defined(LCD_DATA1) && defined(LCD_DATA2) && defined(LCD_DATA3) && !defined(LCD_DATA4) && !defined(LCD_DATA5) && !defined(LCD_DATA6) && !defined(LCD_DATA7)) 
....................    #define  LCD_DATA4    LCD_DATA0 
....................    #define  LCD_DATA5    LCD_DATA1 
....................    #define  LCD_DATA6    LCD_DATA2 
....................    #define  LCD_DATA7    LCD_DATA3 
.................... #endif 
....................  
.................... #ifndef LCD_DATA4 
.................... #ifndef LCD_DATA_PORT 
....................    #if defined(__PCB__) 
....................       #define LCD_DATA_PORT      0x06     //portb 
....................       #define set_tris_lcd(x)   set_tris_b(x) 
....................    #else 
....................      #if defined(PIN_D0) 
....................       #define LCD_DATA_PORT      getenv("SFR:PORTD")     //portd 
....................      #else 
....................       #define LCD_DATA_PORT      getenv("SFR:PORTB")     //portb 
....................      #endif 
....................    #endif    
.................... #endif 
....................  
.................... #if defined(__PCB__) 
....................    LCD_PIN_MAP lcd, lcdlat; 
....................    #byte lcd = LCD_DATA_PORT 
....................    #byte lcdlat = LCD_DATA_PORT 
.................... #elif defined(__PCM__) 
....................    LCD_PIN_MAP lcd, lcdlat, lcdtris; 
....................    #byte lcd = LCD_DATA_PORT 
....................    #byte lcdlat = LCD_DATA_PORT 
....................    #byte lcdtris = LCD_DATA_PORT+0x80 
.................... #elif defined(__PCH__) 
....................    LCD_PIN_MAP lcd, lcdlat, lcdtris; 
....................    #byte lcd = LCD_DATA_PORT 
....................    #byte lcdlat = LCD_DATA_PORT+9 
....................    #byte lcdtris = LCD_DATA_PORT+0x12 
.................... #elif defined(__PCD__) 
....................    LCD_PIN_MAP lcd, lcdlat, lcdtris; 
....................    #word lcd = LCD_DATA_PORT 
....................    #word lcdlat = LCD_DATA_PORT+2 
....................    #word lcdtris = LCD_DATA_PORT-0x02 
.................... #endif 
.................... #endif   //LCD_DATA4 not defined 
....................  
.................... #ifndef LCD_TYPE 
....................    #define LCD_TYPE 2           // 0=5x7, 1=5x10, 2=2 lines 
.................... #endif 
....................  
.................... #ifndef LCD_LINE_TWO 
....................    #define LCD_LINE_TWO 0x40    // LCD RAM address for the second line 
.................... #endif 
....................  
.................... #ifndef LCD_LINE_LENGTH 
....................    #define LCD_LINE_LENGTH 20 
.................... #endif 
....................  
.................... unsigned int8 const LCD_INIT_STRING[4] = {0x20 | (LCD_TYPE << 2), 0xc, 1, 6}; 
....................                              // These bytes need to be sent to the LCD 
....................                              // to start it up. 
....................  
.................... unsigned int8 lcd_read_nibble(void); 
....................  
.................... unsigned int8 lcd_read_byte(void) 
.................... { 
....................    unsigned int8 low,high; 
....................  
....................  #if defined(__PCB__) 
....................    set_tris_lcd(LCD_INPUT_MAP); 
....................  #else 
....................   #if (defined(LCD_DATA4) && defined(LCD_DATA5) && defined(LCD_DATA6) && defined(LCD_DATA7)) 
....................    output_float(LCD_DATA4); 
*
0135:  BSF    06.4
....................    output_float(LCD_DATA5); 
0136:  BSF    06.5
....................    output_float(LCD_DATA6); 
0137:  BSF    06.6
....................    output_float(LCD_DATA7); 
0138:  BSF    06.7
....................   #else 
....................    lcdtris.data = 0xF; 
....................   #endif 
....................  #endif 
....................          
....................    lcd_output_rw(1); 
0139:  BCF    03.5
013A:  BSF    06.1
013B:  BSF    03.5
013C:  BCF    06.1
....................    delay_cycles(1); 
013D:  NOP
....................    lcd_output_enable(1); 
013E:  BCF    03.5
013F:  BSF    06.2
0140:  BSF    03.5
0141:  BCF    06.2
....................    delay_cycles(1); 
0142:  NOP
....................    high = lcd_read_nibble(); 
0143:  BCF    03.5
0144:  CALL   0FC
0145:  MOVF   78,W
0146:  MOVWF  58
....................        
....................    lcd_output_enable(0); 
0147:  BCF    06.2
0148:  BSF    03.5
0149:  BCF    06.2
....................    delay_cycles(1); 
014A:  NOP
....................    lcd_output_enable(1); 
014B:  BCF    03.5
014C:  BSF    06.2
014D:  BSF    03.5
014E:  BCF    06.2
....................    delay_us(1); 
014F:  GOTO   150
0150:  GOTO   151
0151:  NOP
....................    low = lcd_read_nibble(); 
0152:  BCF    03.5
0153:  CALL   0FC
0154:  MOVF   78,W
0155:  MOVWF  57
....................        
....................    lcd_output_enable(0); 
0156:  BCF    06.2
0157:  BSF    03.5
0158:  BCF    06.2
....................  
....................  #if defined(__PCB__) 
....................    set_tris_lcd(LCD_OUTPUT_MAP); 
....................  #else 
....................   #if (defined(LCD_DATA4) && defined(LCD_DATA5) && defined(LCD_DATA6) && defined(LCD_DATA7)) 
....................    output_drive(LCD_DATA4); 
0159:  BCF    06.4
....................    output_drive(LCD_DATA5); 
015A:  BCF    06.5
....................    output_drive(LCD_DATA6); 
015B:  BCF    06.6
....................    output_drive(LCD_DATA7); 
015C:  BCF    06.7
....................   #else 
....................    lcdtris.data = 0x0; 
....................   #endif 
....................  #endif 
....................  
....................    return( (high<<4) | low); 
015D:  BCF    03.5
015E:  SWAPF  58,W
015F:  MOVWF  77
0160:  MOVLW  F0
0161:  ANDWF  77,F
0162:  MOVF   77,W
0163:  IORWF  57,W
0164:  MOVWF  78
.................... } 
....................  
.................... unsigned int8 lcd_read_nibble(void) 
.................... { 
....................   #if (defined(LCD_DATA4) && defined(LCD_DATA5) && defined(LCD_DATA6) && defined(LCD_DATA7)) 
*
00FC:  CLRF   59
....................    unsigned int8 n = 0x00; 
....................  
....................    /* Read the data port */ 
....................    n |= input(LCD_DATA4); 
00FD:  BSF    03.5
00FE:  BSF    06.4
00FF:  MOVLW  00
0100:  BCF    03.5
0101:  BTFSC  06.4
0102:  MOVLW  01
0103:  IORWF  59,F
....................    n |= input(LCD_DATA5) << 1; 
0104:  BSF    03.5
0105:  BSF    06.5
0106:  MOVLW  00
0107:  BCF    03.5
0108:  BTFSC  06.5
0109:  MOVLW  01
010A:  MOVWF  77
010B:  BCF    03.0
010C:  RLF    77,F
010D:  MOVF   77,W
010E:  IORWF  59,F
....................    n |= input(LCD_DATA6) << 2; 
010F:  BSF    03.5
0110:  BSF    06.6
0111:  MOVLW  00
0112:  BCF    03.5
0113:  BTFSC  06.6
0114:  MOVLW  01
0115:  MOVWF  77
0116:  RLF    77,F
0117:  RLF    77,F
0118:  MOVLW  FC
0119:  ANDWF  77,F
011A:  MOVF   77,W
011B:  IORWF  59,F
....................    n |= input(LCD_DATA7) << 3; 
011C:  BSF    03.5
011D:  BSF    06.7
011E:  MOVLW  00
011F:  BCF    03.5
0120:  BTFSC  06.7
0121:  MOVLW  01
0122:  MOVWF  77
0123:  RLF    77,F
0124:  RLF    77,F
0125:  RLF    77,F
0126:  MOVLW  F8
0127:  ANDWF  77,F
0128:  MOVF   77,W
0129:  IORWF  59,F
....................     
....................    return(n); 
012A:  MOVF   59,W
012B:  MOVWF  78
....................   #else 
012C:  RETURN
....................    return(lcd.data); 
....................   #endif 
.................... } 
....................  
.................... void lcd_send_nibble(unsigned int8 n) 
.................... { 
....................   #if (defined(LCD_DATA4) && defined(LCD_DATA5) && defined(LCD_DATA6) && defined(LCD_DATA7)) 
....................    /* Write to the data port */ 
....................    output_bit(LCD_DATA4, bit_test(n, 0)); 
*
00CC:  BTFSC  58.0
00CD:  GOTO   0D0
00CE:  BCF    06.4
00CF:  GOTO   0D1
00D0:  BSF    06.4
00D1:  BSF    03.5
00D2:  BCF    06.4
....................    output_bit(LCD_DATA5, bit_test(n, 1)); 
00D3:  BCF    03.5
00D4:  BTFSC  58.1
00D5:  GOTO   0D8
00D6:  BCF    06.5
00D7:  GOTO   0D9
00D8:  BSF    06.5
00D9:  BSF    03.5
00DA:  BCF    06.5
....................    output_bit(LCD_DATA6, bit_test(n, 2)); 
00DB:  BCF    03.5
00DC:  BTFSC  58.2
00DD:  GOTO   0E0
00DE:  BCF    06.6
00DF:  GOTO   0E1
00E0:  BSF    06.6
00E1:  BSF    03.5
00E2:  BCF    06.6
....................    output_bit(LCD_DATA7, bit_test(n, 3)); 
00E3:  BCF    03.5
00E4:  BTFSC  58.3
00E5:  GOTO   0E8
00E6:  BCF    06.7
00E7:  GOTO   0E9
00E8:  BSF    06.7
00E9:  BSF    03.5
00EA:  BCF    06.7
....................   #else       
....................    lcdlat.data = n; 
....................   #endif 
....................        
....................    delay_cycles(1); 
00EB:  NOP
....................    lcd_output_enable(1); 
00EC:  BCF    03.5
00ED:  BSF    06.2
00EE:  BSF    03.5
00EF:  BCF    06.2
....................    delay_us(2); 
00F0:  MOVLW  02
00F1:  MOVWF  77
00F2:  DECFSZ 77,F
00F3:  GOTO   0F2
00F4:  GOTO   0F5
00F5:  NOP
....................    lcd_output_enable(0); 
00F6:  BCF    03.5
00F7:  BCF    06.2
00F8:  BSF    03.5
00F9:  BCF    06.2
00FA:  BCF    03.5
00FB:  RETURN
.................... } 
....................  
.................... void lcd_send_byte(unsigned int8 address, unsigned int8 n) 
.................... { 
....................   #if defined(__PCB__) 
....................    set_tris_lcd(LCD_OUTPUT_MAP); 
....................   #else 
....................    lcd_enable_tris(); 
*
012D:  BSF    03.5
012E:  BCF    06.2
....................    lcd_rs_tris(); 
012F:  BCF    06.0
....................    lcd_rw_tris(); 
0130:  BCF    06.1
....................   #endif 
....................  
....................    lcd_output_rs(0); 
0131:  BCF    03.5
0132:  BCF    06.0
0133:  BSF    03.5
0134:  BCF    06.0
....................    while ( bit_test(lcd_read_byte(),7) ) ; 
*
0165:  MOVF   78,W
0166:  MOVWF  57
0167:  BTFSS  57.7
0168:  GOTO   16B
0169:  BSF    03.5
016A:  GOTO   135
....................    lcd_output_rs(address); 
016B:  MOVF   55,F
016C:  BTFSS  03.2
016D:  GOTO   170
016E:  BCF    06.0
016F:  GOTO   171
0170:  BSF    06.0
0171:  BSF    03.5
0172:  BCF    06.0
....................    delay_cycles(1); 
0173:  NOP
....................    lcd_output_rw(0); 
0174:  BCF    03.5
0175:  BCF    06.1
0176:  BSF    03.5
0177:  BCF    06.1
....................    delay_cycles(1); 
0178:  NOP
....................    lcd_output_enable(0); 
0179:  BCF    03.5
017A:  BCF    06.2
017B:  BSF    03.5
017C:  BCF    06.2
....................    lcd_send_nibble(n >> 4); 
017D:  BCF    03.5
017E:  SWAPF  56,W
017F:  MOVWF  57
0180:  MOVLW  0F
0181:  ANDWF  57,F
0182:  MOVF   57,W
0183:  MOVWF  58
0184:  CALL   0CC
....................    lcd_send_nibble(n & 0xf); 
0185:  MOVF   56,W
0186:  ANDLW  0F
0187:  MOVWF  57
0188:  MOVWF  58
0189:  CALL   0CC
018A:  RETURN
.................... } 
....................  
.................... #if defined(LCD_EXTENDED_NEWLINE) 
.................... unsigned int8 g_LcdX, g_LcdY; 
.................... #endif 
....................  
.................... void lcd_init(void)  
.................... { 
....................    unsigned int8 i; 
....................  
....................  #if defined(__PCB__) 
....................    set_tris_lcd(LCD_OUTPUT_MAP); 
....................  #else 
....................   #if (defined(LCD_DATA4) && defined(LCD_DATA5) && defined(LCD_DATA6) && defined(LCD_DATA7)) 
....................    output_drive(LCD_DATA4); 
018B:  BSF    03.5
018C:  BCF    06.4
....................    output_drive(LCD_DATA5); 
018D:  BCF    06.5
....................    output_drive(LCD_DATA6); 
018E:  BCF    06.6
....................    output_drive(LCD_DATA7); 
018F:  BCF    06.7
....................   #else 
....................    lcdtris.data = 0x0; 
....................   #endif 
....................    lcd_enable_tris(); 
0190:  BCF    06.2
....................    lcd_rs_tris(); 
0191:  BCF    06.0
....................    lcd_rw_tris(); 
0192:  BCF    06.1
....................  #endif 
....................  
....................    lcd_output_rs(0); 
0193:  BCF    03.5
0194:  BCF    06.0
0195:  BSF    03.5
0196:  BCF    06.0
....................    lcd_output_rw(0); 
0197:  BCF    03.5
0198:  BCF    06.1
0199:  BSF    03.5
019A:  BCF    06.1
....................    lcd_output_enable(0); 
019B:  BCF    03.5
019C:  BCF    06.2
019D:  BSF    03.5
019E:  BCF    06.2
....................      
....................    delay_ms(15); 
019F:  MOVLW  0F
01A0:  BCF    03.5
01A1:  MOVWF  51
01A2:  CALL   0B8
....................    for(i=1;i<=3;++i) 
01A3:  MOVLW  01
01A4:  MOVWF  43
01A5:  MOVF   43,W
01A6:  SUBLW  03
01A7:  BTFSS  03.0
01A8:  GOTO   1B1
....................    { 
....................        lcd_send_nibble(3); 
01A9:  MOVLW  03
01AA:  MOVWF  58
01AB:  CALL   0CC
....................        delay_ms(5); 
01AC:  MOVLW  05
01AD:  MOVWF  51
01AE:  CALL   0B8
01AF:  INCF   43,F
01B0:  GOTO   1A5
....................    } 
....................     
....................    lcd_send_nibble(2); 
01B1:  MOVLW  02
01B2:  MOVWF  58
01B3:  CALL   0CC
....................    delay_ms(5); 
01B4:  MOVLW  05
01B5:  MOVWF  51
01B6:  CALL   0B8
....................    for(i=0;i<=3;++i) 
01B7:  CLRF   43
01B8:  MOVF   43,W
01B9:  SUBLW  03
01BA:  BTFSS  03.0
01BB:  GOTO   1C5
....................       lcd_send_byte(0,LCD_INIT_STRING[i]); 
01BC:  MOVF   43,W
01BD:  CALL   004
01BE:  MOVWF  44
01BF:  CLRF   55
01C0:  MOVF   44,W
01C1:  MOVWF  56
01C2:  CALL   12D
....................  
....................   #if defined(LCD_EXTENDED_NEWLINE) 
01C3:  INCF   43,F
01C4:  GOTO   1B8
01C5:  BSF    0A.3
01C6:  BCF    0A.4
01C7:  GOTO   0CB (RETURN)
....................    g_LcdX = 0; 
....................    g_LcdY = 0; 
....................   #endif 
.................... } 
....................  
.................... void lcd_gotoxy(unsigned int8 x, unsigned int8 y) 
.................... { 
....................    unsigned int8 address; 
....................     
....................    if(y!=1) 
01C8:  DECFSZ 52,W
01C9:  GOTO   1CB
01CA:  GOTO   1CE
....................       address=LCD_LINE_TWO; 
01CB:  MOVLW  40
01CC:  MOVWF  53
01CD:  GOTO   1CF
....................    else 
....................       address=0; 
01CE:  CLRF   53
....................       
....................    address+=x-1; 
01CF:  MOVLW  01
01D0:  SUBWF  51,W
01D1:  ADDWF  53,F
....................    lcd_send_byte(0,0x80|address); 
01D2:  MOVF   53,W
01D3:  IORLW  80
01D4:  MOVWF  54
01D5:  CLRF   55
01D6:  MOVF   54,W
01D7:  MOVWF  56
01D8:  CALL   12D
....................  
....................   #if defined(LCD_EXTENDED_NEWLINE) 
01D9:  RETURN
....................    g_LcdX = x - 1; 
....................    g_LcdY = y - 1; 
....................   #endif 
.................... } 
....................  
.................... void lcd_putc(char c) 
.................... { 
....................    switch (c) 
01DA:  MOVF   50,W
01DB:  XORLW  07
01DC:  BTFSC  03.2
01DD:  GOTO   1E8
01DE:  XORLW  0B
01DF:  BTFSC  03.2
01E0:  GOTO   1ED
01E1:  XORLW  06
01E2:  BTFSC  03.2
01E3:  GOTO   1F5
01E4:  XORLW  02
01E5:  BTFSC  03.2
01E6:  GOTO   1FB
01E7:  GOTO   200
....................    { 
....................       case '\a'   :  lcd_gotoxy(1,1);     break; 
01E8:  MOVLW  01
01E9:  MOVWF  51
01EA:  MOVWF  52
01EB:  CALL   1C8
01EC:  GOTO   205
....................  
....................       case '\f'   :  lcd_send_byte(0,1); 
01ED:  CLRF   55
01EE:  MOVLW  01
01EF:  MOVWF  56
01F0:  CALL   12D
....................                      delay_ms(2); 
01F1:  MOVLW  02
01F2:  MOVWF  51
01F3:  CALL   0B8
....................                     #if defined(LCD_EXTENDED_NEWLINE) 
....................                      g_LcdX = 0; 
....................                      g_LcdY = 0; 
....................                     #endif 
....................                      break; 
01F4:  GOTO   205
....................  
....................      #if defined(LCD_EXTENDED_NEWLINE) 
....................       case '\r'   :  lcd_gotoxy(1, g_LcdY+1);   break; 
....................       case '\n'   : 
....................          while (g_LcdX++ < LCD_LINE_LENGTH) 
....................          { 
....................             lcd_send_byte(1, ' '); 
....................          } 
....................          lcd_gotoxy(1, g_LcdY+2); 
....................          break; 
....................      #else 
....................       case '\n'   : lcd_gotoxy(1,2);        break; 
01F5:  MOVLW  01
01F6:  MOVWF  51
01F7:  MOVLW  02
01F8:  MOVWF  52
01F9:  CALL   1C8
01FA:  GOTO   205
....................      #endif 
....................       
....................       case '\b'   : lcd_send_byte(0,0x10);  break; 
01FB:  CLRF   55
01FC:  MOVLW  10
01FD:  MOVWF  56
01FE:  CALL   12D
01FF:  GOTO   205
....................       
....................      #if defined(LCD_EXTENDED_NEWLINE) 
....................       default     :  
....................          if (g_LcdX < LCD_LINE_LENGTH) 
....................          { 
....................             lcd_send_byte(1, c); 
....................             g_LcdX++; 
....................          } 
....................          break; 
....................      #else 
....................       default     : lcd_send_byte(1,c);     break; 
0200:  MOVLW  01
0201:  MOVWF  55
0202:  MOVF   50,W
0203:  MOVWF  56
0204:  CALL   12D
....................      #endif 
....................    } 
0205:  RETURN
.................... } 
....................   
.................... char lcd_getc(unsigned int8 x, unsigned int8 y) 
.................... { 
....................    char value; 
....................  
....................    lcd_gotoxy(x,y); 
....................    while ( bit_test(lcd_read_byte(),7) ); // wait until busy flag is low 
....................    lcd_output_rs(1); 
....................    value = lcd_read_byte(); 
....................    lcd_output_rs(0); 
....................     
....................    return(value); 
.................... } 
....................  
.................... // write a custom character to the ram 
.................... // which is 0-7 and specifies which character array we are modifying. 
.................... // ptr points to an array of 8 bytes, where each byte is the next row of 
.................... //    pixels.  only bits 0-4 are used.  the last row is the cursor row, and 
.................... //    usually you will want to leave this byte 0x00. 
.................... void lcd_set_cgram_char(unsigned int8 which, unsigned int8 *ptr) 
.................... { 
....................    unsigned int i; 
....................  
....................    which <<= 3; 
....................    which &= 0x38; 
....................  
....................    lcd_send_byte(0, 0x40 | which);  //set cgram address 
....................  
....................    for(i=0; i<8; i++) 
....................    { 
....................       lcd_send_byte(1, *ptr++); 
....................    } 
....................    
....................    #if defined(LCD_EXTENDED_NEWLINE) 
....................     lcd_gotoxy(g_LcdX+1, g_LcdY+1);  //set ddram address 
....................    #endif 
.................... } 
....................  
.................... void lcd_cursor_on(int1 on) 
.................... { 
....................    if (on) 
....................    { 
....................       lcd_send_byte(0,0x0F);           //turn LCD cursor ON 
....................    } 
....................    else 
....................    { 
....................       lcd_send_byte(0,0x0C);           //turn LCD cursor OFF 
....................    } 
.................... } 
....................  
.................... #endif 
....................  
....................  
.................... // ---- Sensor Pins ---- 
.................... #define DHT11_PIN   PIN_C0   // DHT11 on RC0 
.................... #define DUST_LED_PIN PIN_C1  // GP2Y1014 LED control on RC1 
....................  
.................... // ---- DHT11 Function Prototypes ---- 
.................... short dht11_read_data(unsigned int8 *data); 
.................... void dht11_start(); 
.................... int1 dht11_check_response(); 
.................... unsigned int8 dht11_read_byte(); 
....................  
.................... // ---- Servo function (continuous PWM) ---- 
.................... void servo_set_angle(int angle) { 
....................    int16 pulse_width; 
....................    pulse_width = 1000 + ((int32)angle * 1000) / 180;  // 12ms pulse 
*
065F:  CLRF   49
0660:  CLRF   48
0661:  CLRF   47
0662:  MOVF   43,W
0663:  MOVWF  46
0664:  MOVF   49,W
0665:  MOVWF  4D
0666:  MOVF   48,W
0667:  MOVWF  4C
0668:  MOVF   47,W
0669:  MOVWF  4B
066A:  MOVF   46,W
066B:  MOVWF  4A
066C:  CLRF   51
066D:  CLRF   50
066E:  MOVLW  03
066F:  MOVWF  4F
0670:  MOVLW  E8
0671:  MOVWF  4E
*
069B:  MOVF   7A,W
069C:  MOVWF  49
069D:  MOVF   79,W
069E:  MOVWF  48
069F:  MOVF   78,W
06A0:  MOVWF  47
06A1:  MOVF   77,W
06A2:  MOVWF  46
06A3:  BCF    03.1
06A4:  MOVF   7A,W
06A5:  MOVWF  53
06A6:  MOVF   79,W
06A7:  MOVWF  52
06A8:  MOVF   78,W
06A9:  MOVWF  51
06AA:  MOVF   77,W
06AB:  MOVWF  50
06AC:  CLRF   57
06AD:  CLRF   56
06AE:  CLRF   55
06AF:  MOVLW  B4
06B0:  MOVWF  54
06B1:  CALL   530
06B2:  MOVLW  E8
06B3:  ADDWF  77,W
06B4:  MOVWF  44
06B5:  MOVF   78,W
06B6:  MOVWF  45
06B7:  MOVLW  03
06B8:  BTFSC  03.0
06B9:  MOVLW  04
06BA:  ADDWF  45,F
....................    SERVO = 1; 
06BB:  BSF    08.0
....................    delay_us(pulse_width); 
06BC:  MOVF   45,W
06BD:  MOVWF  46
06BE:  INCF   46,F
06BF:  DECF   46,F
06C0:  BTFSC  03.2
06C1:  GOTO   6C6
06C2:  MOVLW  FF
06C3:  MOVWF  49
06C4:  CALL   3AD
06C5:  GOTO   6BF
06C6:  MOVF   44,W
06C7:  MOVWF  49
06C8:  CALL   3AD
....................    SERVO = 0; 
06C9:  BCF    08.0
....................    delay_us(20000 - pulse_width);  // 20 ms period 
06CA:  MOVF   44,W
06CB:  SUBLW  20
06CC:  MOVWF  46
06CD:  MOVLW  4E
06CE:  MOVWF  47
06CF:  MOVF   45,W
06D0:  BTFSS  03.0
06D1:  INCFSZ 45,W
06D2:  SUBWF  47,F
06D3:  MOVF   47,W
06D4:  MOVWF  48
06D5:  INCF   48,F
06D6:  DECF   48,F
06D7:  BTFSC  03.2
06D8:  GOTO   6DD
06D9:  MOVLW  FF
06DA:  MOVWF  49
06DB:  CALL   3AD
06DC:  GOTO   6D6
06DD:  MOVF   46,W
06DE:  MOVWF  49
06DF:  CALL   3AD
06E0:  RETURN
.................... } 
....................  
.................... // ---- Main program ---- 
.................... void main() { 
*
089B:  MOVF   03,W
089C:  ANDLW  1F
089D:  MOVWF  03
089E:  MOVLW  81
089F:  BSF    03.5
08A0:  MOVWF  19
08A1:  MOVLW  A6
08A2:  MOVWF  18
08A3:  MOVLW  90
08A4:  BCF    03.5
08A5:  MOVWF  18
08A6:  MOVLW  FF
08A7:  MOVWF  20
08A8:  BSF    03.5
08A9:  BSF    1F.0
08AA:  BSF    1F.1
08AB:  BSF    1F.2
08AC:  BCF    1F.3
08AD:  MOVLW  07
08AE:  MOVWF  1C
08AF:  BCF    03.7
....................    set_tris_d(0b00001010);   // RD1 & RD3 inputs (manual switches), others outputs 
08B0:  MOVLW  0A
08B1:  MOVWF  08
....................    setup_adc_ports(ALL_ANALOG); 
08B2:  BCF    1F.0
08B3:  BCF    1F.1
08B4:  BCF    1F.2
08B5:  BCF    1F.3
....................    setup_adc(ADC_CLOCK_INTERNAL); 
08B6:  BCF    1F.6
08B7:  BCF    03.5
08B8:  BSF    1F.6
08B9:  BSF    1F.7
08BA:  BSF    03.5
08BB:  BSF    1F.7
08BC:  BCF    03.5
08BD:  BSF    1F.0
....................  
....................    // Configure PORTC: RC0=input (DHT11), RC1=output (Dust LED), others input by default 
....................    set_tris_c(0b11111101); 
08BE:  MOVLW  FD
08BF:  BSF    03.5
08C0:  MOVWF  07
08C1:  BCF    03.5
08C2:  MOVWF  20
....................    output_high(DUST_LED_PIN);   // LED off (active LOW) 
08C3:  BCF    20.1
08C4:  MOVF   20,W
08C5:  BSF    03.5
08C6:  MOVWF  07
08C7:  BCF    03.5
08C8:  BSF    07.1
....................  
....................    lcd_init(); 
08C9:  BCF    0A.3
08CA:  GOTO   18B
08CB:  BSF    0A.3
....................  
....................    int servo_angle = 0;   // default closed 
....................    int16 mq135, pm25; 
....................    float mq_voltage, mq_ppm, pm25_voltage; 
....................    unsigned int8 dht_data[5]; 
....................    unsigned int8 RH_int, RH_dec, T_int, T_dec; 
....................    int fan_status = 0; 
....................    int air_status = 0; 
....................    int buzzer_status = 0; 
08CC:  CLRF   21
08CD:  CLRF   3B
08CE:  CLRF   3C
08CF:  CLRF   3D
....................  
....................    // Initial device states 
....................    FAN = 0; fan_status = 0; 
08D0:  BCF    08.2
08D1:  CLRF   3B
....................    SERVO = 0; servo_angle = 0; 
08D2:  BCF    08.0
08D3:  CLRF   21
....................    BUZZER = 0; buzzer_status = 0; 
08D4:  BCF    08.7
08D5:  CLRF   3D
....................    LED_GREEN = 0; LED_YELLOW = 0; LED_RED = 0; 
08D6:  BCF    08.4
08D7:  BCF    08.5
08D8:  BCF    08.6
....................  
....................    // ---- Welcome screens ---- 
....................    lcd_putc("\f MICRO  PROJECT  "); 
08D9:  MOVLW  0C
08DA:  BSF    03.6
08DB:  MOVWF  0D
08DC:  MOVLW  00
08DD:  MOVWF  0F
08DE:  BCF    0A.3
08DF:  BCF    03.6
08E0:  CALL   206
08E1:  BSF    0A.3
....................    lcd_gotoxy(1,2); 
08E2:  MOVLW  01
08E3:  MOVWF  51
08E4:  MOVLW  02
08E5:  MOVWF  52
08E6:  BCF    0A.3
08E7:  CALL   1C8
08E8:  BSF    0A.3
....................    lcd_putc("      EIOT      "); 
08E9:  MOVLW  16
08EA:  BSF    03.6
08EB:  MOVWF  0D
08EC:  MOVLW  00
08ED:  MOVWF  0F
08EE:  BCF    0A.3
08EF:  BCF    03.6
08F0:  CALL   206
08F1:  BSF    0A.3
....................    delay_ms(500); 
08F2:  MOVLW  02
08F3:  MOVWF  43
08F4:  MOVLW  FA
08F5:  MOVWF  51
08F6:  BCF    0A.3
08F7:  CALL   0B8
08F8:  BSF    0A.3
08F9:  DECFSZ 43,F
08FA:  GOTO   0F4
....................  
....................    lcd_putc("\f  Air  Quality  "); 
08FB:  MOVLW  1F
08FC:  BSF    03.6
08FD:  MOVWF  0D
08FE:  MOVLW  00
08FF:  MOVWF  0F
0900:  BCF    0A.3
0901:  BCF    03.6
0902:  CALL   206
0903:  BSF    0A.3
....................    lcd_gotoxy(1,2); 
0904:  MOVLW  01
0905:  MOVWF  51
0906:  MOVLW  02
0907:  MOVWF  52
0908:  BCF    0A.3
0909:  CALL   1C8
090A:  BSF    0A.3
....................    lcd_putc(" Monitor System "); 
090B:  MOVLW  28
090C:  BSF    03.6
090D:  MOVWF  0D
090E:  MOVLW  00
090F:  MOVWF  0F
0910:  BCF    0A.3
0911:  BCF    03.6
0912:  CALL   206
0913:  BSF    0A.3
....................    delay_ms(500); 
0914:  MOVLW  02
0915:  MOVWF  43
0916:  MOVLW  FA
0917:  MOVWF  51
0918:  BCF    0A.3
0919:  CALL   0B8
091A:  BSF    0A.3
091B:  DECFSZ 43,F
091C:  GOTO   116
....................  
....................    while(TRUE) { 
....................       // ---- Servo manual switch control (active LOW) ---- 
....................       if(!BUTTON) servo_angle = 90; // pressed -> 90 
091D:  BTFSC  08.3
091E:  GOTO   122
091F:  MOVLW  5A
0920:  MOVWF  21
0921:  GOTO   123
....................       else servo_angle = 0;          // released -> 0 
0922:  CLRF   21
....................  
....................       // ---- Read MQ135 ---- 
....................       set_adc_channel(0); delay_us(20);    // MQ135 on AN0 
0923:  MOVLW  00
0924:  MOVWF  78
0925:  MOVF   1F,W
0926:  ANDLW  C7
0927:  IORWF  78,W
0928:  MOVWF  1F
0929:  MOVLW  20
092A:  MOVWF  77
092B:  DECFSZ 77,F
092C:  GOTO   12B
092D:  GOTO   12E
092E:  NOP
....................       mq135 = read_adc(); 
092F:  BSF    1F.2
0930:  BTFSC  1F.2
0931:  GOTO   130
0932:  BSF    03.5
0933:  MOVF   1E,W
0934:  BCF    03.5
0935:  MOVWF  22
0936:  MOVF   1E,W
0937:  MOVWF  23
....................       mq_voltage = (mq135 * 5.0) / 1023.0; 
0938:  MOVF   23,W
0939:  MOVWF  44
093A:  MOVF   22,W
093B:  MOVWF  43
093C:  BCF    0A.3
093D:  CALL   251
093E:  BSF    0A.3
093F:  MOVF   7A,W
0940:  MOVWF  53
0941:  MOVF   79,W
0942:  MOVWF  52
0943:  MOVF   78,W
0944:  MOVWF  51
0945:  MOVF   77,W
0946:  MOVWF  50
0947:  CLRF   57
0948:  CLRF   56
0949:  MOVLW  20
094A:  MOVWF  55
094B:  MOVLW  81
094C:  MOVWF  54
094D:  BCF    0A.3
094E:  CALL   26E
094F:  BSF    0A.3
0950:  MOVF   7A,W
0951:  MOVWF  46
0952:  MOVF   79,W
0953:  MOVWF  45
0954:  MOVF   78,W
0955:  MOVWF  44
0956:  MOVF   77,W
0957:  MOVWF  43
0958:  MOVF   7A,W
0959:  MOVWF  4A
095A:  MOVF   79,W
095B:  MOVWF  49
095C:  MOVF   78,W
095D:  MOVWF  48
095E:  MOVF   77,W
095F:  MOVWF  47
0960:  CLRF   4E
0961:  MOVLW  C0
0962:  MOVWF  4D
0963:  MOVLW  7F
0964:  MOVWF  4C
0965:  MOVLW  88
0966:  MOVWF  4B
0967:  BCF    0A.3
0968:  CALL   2E3
0969:  BSF    0A.3
096A:  MOVF   7A,W
096B:  MOVWF  29
096C:  MOVF   79,W
096D:  MOVWF  28
096E:  MOVF   78,W
096F:  MOVWF  27
0970:  MOVF   77,W
0971:  MOVWF  26
....................       mq_ppm = mq_voltage * 200.0; 
0972:  MOVF   29,W
0973:  MOVWF  53
0974:  MOVF   28,W
0975:  MOVWF  52
0976:  MOVF   27,W
0977:  MOVWF  51
0978:  MOVF   26,W
0979:  MOVWF  50
097A:  CLRF   57
097B:  CLRF   56
097C:  MOVLW  48
097D:  MOVWF  55
097E:  MOVLW  86
097F:  MOVWF  54
0980:  BCF    0A.3
0981:  CALL   26E
0982:  BSF    0A.3
0983:  MOVF   7A,W
0984:  MOVWF  2D
0985:  MOVF   79,W
0986:  MOVWF  2C
0987:  MOVF   78,W
0988:  MOVWF  2B
0989:  MOVF   77,W
098A:  MOVWF  2A
....................  
....................       // ---- Read GP2Y1014 dust sensor ---- 
....................       output_low(DUST_LED_PIN);    // LED ON (active LOW) 
098B:  BCF    20.1
098C:  MOVF   20,W
098D:  BSF    03.5
098E:  MOVWF  07
098F:  BCF    03.5
0990:  BCF    07.1
....................       delay_us(280); 
0991:  MOVLW  02
0992:  MOVWF  43
0993:  MOVLW  8B
0994:  MOVWF  49
0995:  BCF    0A.3
0996:  CALL   3AD
0997:  BSF    0A.3
0998:  DECFSZ 43,F
0999:  GOTO   193
....................       set_adc_channel(1);          // AN1 
099A:  MOVLW  08
099B:  MOVWF  78
099C:  MOVF   1F,W
099D:  ANDLW  C7
099E:  IORWF  78,W
099F:  MOVWF  1F
....................       delay_us(40); 
09A0:  MOVLW  42
09A1:  MOVWF  77
09A2:  DECFSZ 77,F
09A3:  GOTO   1A2
09A4:  NOP
....................       pm25 = read_adc(); 
09A5:  BSF    1F.2
09A6:  BTFSC  1F.2
09A7:  GOTO   1A6
09A8:  BSF    03.5
09A9:  MOVF   1E,W
09AA:  BCF    03.5
09AB:  MOVWF  24
09AC:  MOVF   1E,W
09AD:  MOVWF  25
....................       output_high(DUST_LED_PIN);   // LED OFF 
09AE:  BCF    20.1
09AF:  MOVF   20,W
09B0:  BSF    03.5
09B1:  MOVWF  07
09B2:  BCF    03.5
09B3:  BSF    07.1
....................       pm25_voltage = (pm25 * 5.0) / 1023.0; 
09B4:  MOVF   25,W
09B5:  MOVWF  44
09B6:  MOVF   24,W
09B7:  MOVWF  43
09B8:  BCF    0A.3
09B9:  CALL   251
09BA:  BSF    0A.3
09BB:  MOVF   7A,W
09BC:  MOVWF  53
09BD:  MOVF   79,W
09BE:  MOVWF  52
09BF:  MOVF   78,W
09C0:  MOVWF  51
09C1:  MOVF   77,W
09C2:  MOVWF  50
09C3:  CLRF   57
09C4:  CLRF   56
09C5:  MOVLW  20
09C6:  MOVWF  55
09C7:  MOVLW  81
09C8:  MOVWF  54
09C9:  BCF    0A.3
09CA:  CALL   26E
09CB:  BSF    0A.3
09CC:  MOVF   7A,W
09CD:  MOVWF  46
09CE:  MOVF   79,W
09CF:  MOVWF  45
09D0:  MOVF   78,W
09D1:  MOVWF  44
09D2:  MOVF   77,W
09D3:  MOVWF  43
09D4:  MOVF   7A,W
09D5:  MOVWF  4A
09D6:  MOVF   79,W
09D7:  MOVWF  49
09D8:  MOVF   78,W
09D9:  MOVWF  48
09DA:  MOVF   77,W
09DB:  MOVWF  47
09DC:  CLRF   4E
09DD:  MOVLW  C0
09DE:  MOVWF  4D
09DF:  MOVLW  7F
09E0:  MOVWF  4C
09E1:  MOVLW  88
09E2:  MOVWF  4B
09E3:  BCF    0A.3
09E4:  CALL   2E3
09E5:  BSF    0A.3
09E6:  MOVF   7A,W
09E7:  MOVWF  31
09E8:  MOVF   79,W
09E9:  MOVWF  30
09EA:  MOVF   78,W
09EB:  MOVWF  2F
09EC:  MOVF   77,W
09ED:  MOVWF  2E
....................       delay_ms(10);  // ~10ms sampling cycle 
09EE:  MOVLW  0A
09EF:  MOVWF  51
09F0:  BCF    0A.3
09F1:  CALL   0B8
09F2:  BSF    0A.3
....................  
....................       // ---- Read DHT11 ---- 
....................       if(dht11_read_data(dht_data)) { 
09F3:  CLRF   44
09F4:  MOVLW  32
09F5:  MOVWF  43
09F6:  BCF    0A.3
09F7:  GOTO   3BC
09F8:  BSF    0A.3
09F9:  MOVF   78,F
09FA:  BTFSC  03.2
09FB:  GOTO   205
....................          RH_int = dht_data[0]; 
09FC:  MOVF   32,W
09FD:  MOVWF  37
....................          RH_dec = dht_data[1]; 
09FE:  MOVF   33,W
09FF:  MOVWF  38
....................          T_int  = dht_data[2]; 
0A00:  MOVF   34,W
0A01:  MOVWF  39
....................          T_dec  = dht_data[3]; 
0A02:  MOVF   35,W
0A03:  MOVWF  3A
....................       } else { 
0A04:  GOTO   20A
....................          RH_int=RH_dec=T_int=T_dec=0; 
0A05:  CLRF   3A
0A06:  MOVF   3A,W
0A07:  MOVWF  39
0A08:  MOVWF  38
0A09:  MOVWF  37
....................       } 
....................  
....................       // ---- Decision logic ---- 
....................       if(mq135 < 250 && pm25 < 100 && T_int < 30) { 
0A0A:  MOVF   23,F
0A0B:  BTFSS  03.2
0A0C:  GOTO   21E
0A0D:  MOVF   22,W
0A0E:  SUBLW  F9
0A0F:  BTFSS  03.0
0A10:  GOTO   21E
0A11:  MOVF   25,F
0A12:  BTFSS  03.2
0A13:  GOTO   21E
0A14:  MOVF   24,W
0A15:  SUBLW  63
0A16:  BTFSS  03.0
0A17:  GOTO   21E
0A18:  MOVF   39,W
0A19:  SUBLW  1D
0A1A:  BTFSS  03.0
0A1B:  GOTO   21E
....................          air_status = 0; // GOOD 
0A1C:  CLRF   3C
....................       }  
0A1D:  GOTO   23B
....................       else if(mq135 < 600 && pm25 < 400 && T_int < 40) { 
0A1E:  MOVF   23,W
0A1F:  SUBLW  02
0A20:  BTFSS  03.0
0A21:  GOTO   239
0A22:  BTFSS  03.2
0A23:  GOTO   228
0A24:  MOVF   22,W
0A25:  SUBLW  57
0A26:  BTFSS  03.0
0A27:  GOTO   239
0A28:  MOVF   25,W
0A29:  SUBLW  01
0A2A:  BTFSS  03.0
0A2B:  GOTO   239
0A2C:  BTFSS  03.2
0A2D:  GOTO   232
0A2E:  MOVF   24,W
0A2F:  SUBLW  8F
0A30:  BTFSS  03.0
0A31:  GOTO   239
0A32:  MOVF   39,W
0A33:  SUBLW  27
0A34:  BTFSS  03.0
0A35:  GOTO   239
....................          air_status = 1; // MODERATE 
0A36:  MOVLW  01
0A37:  MOVWF  3C
....................       }  
0A38:  GOTO   23B
....................       else { 
....................          air_status = 2; // BAD 
0A39:  MOVLW  02
0A3A:  MOVWF  3C
....................       } 
....................  
....................       // ---- Control devices ---- 
....................       if(air_status == 0) { 
0A3B:  MOVF   3C,F
0A3C:  BTFSS  03.2
0A3D:  GOTO   246
....................          LED_GREEN=1; LED_YELLOW=0; LED_RED=0; 
0A3E:  BSF    08.4
0A3F:  BCF    08.5
0A40:  BCF    08.6
....................          FAN=0; fan_status=0;  
0A41:  BCF    08.2
0A42:  CLRF   3B
....................          BUZZER=0; buzzer_status=0; 
0A43:  BCF    08.7
0A44:  CLRF   3D
....................       }  
0A45:  GOTO   25A
....................       else if(air_status == 1) { 
0A46:  DECFSZ 3C,W
0A47:  GOTO   250
....................          LED_GREEN=0; LED_YELLOW=1; LED_RED=0; 
0A48:  BCF    08.4
0A49:  BSF    08.5
0A4A:  BCF    08.6
....................          FAN=0; fan_status=0;  
0A4B:  BCF    08.2
0A4C:  CLRF   3B
....................          BUZZER=0; buzzer_status=0; 
0A4D:  BCF    08.7
0A4E:  CLRF   3D
....................       }  
0A4F:  GOTO   25A
....................       else {   
....................          LED_GREEN=0; LED_YELLOW=0; LED_RED=1; 
0A50:  BCF    08.4
0A51:  BCF    08.5
0A52:  BSF    08.6
....................          FAN=1; fan_status=1;  
0A53:  BSF    08.2
0A54:  MOVLW  01
0A55:  MOVWF  3B
....................          BUZZER=1; buzzer_status=1; 
0A56:  BSF    08.7
0A57:  MOVWF  3D
....................          servo_angle = 90;   // force open 
0A58:  MOVLW  5A
0A59:  MOVWF  21
....................       } 
....................  
....................       // ---- Manual Fan Override ---- 
....................       if(!SWITCH1) { 
0A5A:  BTFSC  08.1
0A5B:  GOTO   25F
....................          FAN = 1;      
0A5C:  BSF    08.2
....................          fan_status = 1; 
0A5D:  MOVLW  01
0A5E:  MOVWF  3B
....................       } 
....................  
....................       // ---- LCD Displays ---- 
....................       // MQ135 
....................       lcd_putc("\fMQ135 : "); 
0A5F:  MOVLW  31
0A60:  BSF    03.6
0A61:  MOVWF  0D
0A62:  MOVLW  00
0A63:  MOVWF  0F
0A64:  BCF    0A.3
0A65:  BCF    03.6
0A66:  CALL   206
0A67:  BSF    0A.3
....................       printf(lcd_putc,"%lu",mq135); 
0A68:  MOVLW  10
0A69:  MOVWF  04
0A6A:  MOVF   23,W
0A6B:  MOVWF  44
0A6C:  MOVF   22,W
0A6D:  MOVWF  43
0A6E:  BCF    0A.3
0A6F:  CALL   479
0A70:  BSF    0A.3
....................       lcd_gotoxy(1,2); 
0A71:  MOVLW  01
0A72:  MOVWF  51
0A73:  MOVLW  02
0A74:  MOVWF  52
0A75:  BCF    0A.3
0A76:  CALL   1C8
0A77:  BSF    0A.3
....................       printf(lcd_putc,"PPM   : %.2f",mq_ppm); 
0A78:  MOVLW  36
0A79:  BSF    03.6
0A7A:  MOVWF  0D
0A7B:  MOVLW  00
0A7C:  MOVWF  0F
0A7D:  BCF    03.0
0A7E:  MOVLW  08
0A7F:  BCF    03.6
0A80:  MOVWF  43
0A81:  BCF    0A.3
0A82:  CALL   4DC
0A83:  BSF    0A.3
0A84:  MOVLW  89
0A85:  MOVWF  04
0A86:  MOVF   2D,W
0A87:  MOVWF  46
0A88:  MOVF   2C,W
0A89:  MOVWF  45
0A8A:  MOVF   2B,W
0A8B:  MOVWF  44
0A8C:  MOVF   2A,W
0A8D:  MOVWF  43
0A8E:  MOVLW  02
0A8F:  MOVWF  47
0A90:  BCF    0A.3
0A91:  CALL   57F
0A92:  BSF    0A.3
....................       for(int i=0;i<30;i++) servo_set_angle(servo_angle); 
0A93:  CLRF   3E
0A94:  MOVF   3E,W
0A95:  SUBLW  1D
0A96:  BTFSS  03.0
0A97:  GOTO   29F
0A98:  MOVF   21,W
0A99:  MOVWF  43
0A9A:  BCF    0A.3
0A9B:  CALL   65F
0A9C:  BSF    0A.3
0A9D:  INCF   3E,F
0A9E:  GOTO   294
....................  
....................       // Dust sensor 
....................       lcd_putc("\fPM2.5 : "); 
0A9F:  MOVLW  3D
0AA0:  BSF    03.6
0AA1:  MOVWF  0D
0AA2:  MOVLW  00
0AA3:  MOVWF  0F
0AA4:  BCF    0A.3
0AA5:  BCF    03.6
0AA6:  CALL   206
0AA7:  BSF    0A.3
....................       printf(lcd_putc,"%lu",pm25); 
0AA8:  MOVLW  10
0AA9:  MOVWF  04
0AAA:  MOVF   25,W
0AAB:  MOVWF  44
0AAC:  MOVF   24,W
0AAD:  MOVWF  43
0AAE:  BCF    0A.3
0AAF:  CALL   479
0AB0:  BSF    0A.3
....................       lcd_gotoxy(1,2); 
0AB1:  MOVLW  01
0AB2:  MOVWF  51
0AB3:  MOVLW  02
0AB4:  MOVWF  52
0AB5:  BCF    0A.3
0AB6:  CALL   1C8
0AB7:  BSF    0A.3
....................       printf(lcd_putc,"VOLT  : %.2f",pm25_voltage); 
0AB8:  MOVLW  42
0AB9:  BSF    03.6
0ABA:  MOVWF  0D
0ABB:  MOVLW  00
0ABC:  MOVWF  0F
0ABD:  BCF    03.0
0ABE:  MOVLW  08
0ABF:  BCF    03.6
0AC0:  MOVWF  43
0AC1:  BCF    0A.3
0AC2:  CALL   4DC
0AC3:  BSF    0A.3
0AC4:  MOVLW  89
0AC5:  MOVWF  04
0AC6:  MOVF   31,W
0AC7:  MOVWF  46
0AC8:  MOVF   30,W
0AC9:  MOVWF  45
0ACA:  MOVF   2F,W
0ACB:  MOVWF  44
0ACC:  MOVF   2E,W
0ACD:  MOVWF  43
0ACE:  MOVLW  02
0ACF:  MOVWF  47
0AD0:  BCF    0A.3
0AD1:  CALL   57F
0AD2:  BSF    0A.3
....................       for(int j=0;j<30;j++) servo_set_angle(servo_angle); 
0AD3:  CLRF   3F
0AD4:  MOVF   3F,W
0AD5:  SUBLW  1D
0AD6:  BTFSS  03.0
0AD7:  GOTO   2DF
0AD8:  MOVF   21,W
0AD9:  MOVWF  43
0ADA:  BCF    0A.3
0ADB:  CALL   65F
0ADC:  BSF    0A.3
0ADD:  INCF   3F,F
0ADE:  GOTO   2D4
....................  
....................       // Temp/Humidity 
....................       printf(lcd_putc,"\fTEMP : %u.%u",T_int,T_dec); 
0ADF:  MOVLW  49
0AE0:  BSF    03.6
0AE1:  MOVWF  0D
0AE2:  MOVLW  00
0AE3:  MOVWF  0F
0AE4:  BCF    03.0
0AE5:  MOVLW  08
0AE6:  BCF    03.6
0AE7:  MOVWF  43
0AE8:  BCF    0A.3
0AE9:  CALL   4DC
0AEA:  BSF    0A.3
0AEB:  MOVF   39,W
0AEC:  MOVWF  43
0AED:  MOVLW  1B
0AEE:  MOVWF  44
0AEF:  BCF    0A.3
0AF0:  CALL   6F6
0AF1:  BSF    0A.3
0AF2:  MOVLW  2E
0AF3:  MOVWF  50
0AF4:  BCF    0A.3
0AF5:  CALL   1DA
0AF6:  BSF    0A.3
0AF7:  MOVF   3A,W
0AF8:  MOVWF  43
0AF9:  MOVLW  1B
0AFA:  MOVWF  44
0AFB:  BCF    0A.3
0AFC:  CALL   6F6
0AFD:  BSF    0A.3
....................       lcd_putc(223); lcd_putc('C'); 
0AFE:  MOVLW  DF
0AFF:  MOVWF  50
0B00:  BCF    0A.3
0B01:  CALL   1DA
0B02:  BSF    0A.3
0B03:  MOVLW  43
0B04:  MOVWF  50
0B05:  BCF    0A.3
0B06:  CALL   1DA
0B07:  BSF    0A.3
....................       lcd_gotoxy(1,2); 
0B08:  MOVLW  01
0B09:  MOVWF  51
0B0A:  MOVLW  02
0B0B:  MOVWF  52
0B0C:  BCF    0A.3
0B0D:  CALL   1C8
0B0E:  BSF    0A.3
....................       printf(lcd_putc,"HUMI : %u.%u%%",RH_int,RH_dec); 
0B0F:  MOVLW  50
0B10:  BSF    03.6
0B11:  MOVWF  0D
0B12:  MOVLW  00
0B13:  MOVWF  0F
0B14:  BCF    03.0
0B15:  MOVLW  07
0B16:  BCF    03.6
0B17:  MOVWF  43
0B18:  BCF    0A.3
0B19:  CALL   4DC
0B1A:  BSF    0A.3
0B1B:  MOVF   37,W
0B1C:  MOVWF  43
0B1D:  MOVLW  1B
0B1E:  MOVWF  44
0B1F:  BCF    0A.3
0B20:  CALL   6F6
0B21:  BSF    0A.3
0B22:  MOVLW  2E
0B23:  MOVWF  50
0B24:  BCF    0A.3
0B25:  CALL   1DA
0B26:  BSF    0A.3
0B27:  MOVF   38,W
0B28:  MOVWF  43
0B29:  MOVLW  1B
0B2A:  MOVWF  44
0B2B:  BCF    0A.3
0B2C:  CALL   6F6
0B2D:  BSF    0A.3
0B2E:  MOVLW  25
0B2F:  MOVWF  50
0B30:  BCF    0A.3
0B31:  CALL   1DA
0B32:  BSF    0A.3
....................       for(int l=0;l<30;l++) servo_set_angle(servo_angle); 
0B33:  CLRF   40
0B34:  MOVF   40,W
0B35:  SUBLW  1D
0B36:  BTFSS  03.0
0B37:  GOTO   33F
0B38:  MOVF   21,W
0B39:  MOVWF  43
0B3A:  BCF    0A.3
0B3B:  CALL   65F
0B3C:  BSF    0A.3
0B3D:  INCF   40,F
0B3E:  GOTO   334
....................  
....................       // Air status 
....................       lcd_putc("\fAir Status :"); 
0B3F:  MOVLW  58
0B40:  BSF    03.6
0B41:  MOVWF  0D
0B42:  MOVLW  00
0B43:  MOVWF  0F
0B44:  BCF    0A.3
0B45:  BCF    03.6
0B46:  CALL   206
0B47:  BSF    0A.3
....................       lcd_gotoxy(1,2); 
0B48:  MOVLW  01
0B49:  MOVWF  51
0B4A:  MOVLW  02
0B4B:  MOVWF  52
0B4C:  BCF    0A.3
0B4D:  CALL   1C8
0B4E:  BSF    0A.3
....................       if(air_status==0) 
0B4F:  MOVF   3C,F
0B50:  BTFSS  03.2
0B51:  GOTO   35C
....................          lcd_putc("   GOOD   "); 
0B52:  MOVLW  5F
0B53:  BSF    03.6
0B54:  MOVWF  0D
0B55:  MOVLW  00
0B56:  MOVWF  0F
0B57:  BCF    0A.3
0B58:  BCF    03.6
0B59:  CALL   206
0B5A:  BSF    0A.3
0B5B:  GOTO   371
....................       else if(air_status==1) 
0B5C:  DECFSZ 3C,W
0B5D:  GOTO   368
....................          lcd_putc(" MODERATE "); 
0B5E:  MOVLW  65
0B5F:  BSF    03.6
0B60:  MOVWF  0D
0B61:  MOVLW  00
0B62:  MOVWF  0F
0B63:  BCF    0A.3
0B64:  BCF    03.6
0B65:  CALL   206
0B66:  BSF    0A.3
0B67:  GOTO   371
....................       else 
....................          lcd_putc("   BAD!!  "); 
0B68:  MOVLW  6B
0B69:  BSF    03.6
0B6A:  MOVWF  0D
0B6B:  MOVLW  00
0B6C:  MOVWF  0F
0B6D:  BCF    0A.3
0B6E:  BCF    03.6
0B6F:  CALL   206
0B70:  BSF    0A.3
....................       for(int k=0;k<30;k++) servo_set_angle(servo_angle); 
0B71:  CLRF   41
0B72:  MOVF   41,W
0B73:  SUBLW  1D
0B74:  BTFSS  03.0
0B75:  GOTO   37D
0B76:  MOVF   21,W
0B77:  MOVWF  43
0B78:  BCF    0A.3
0B79:  CALL   65F
0B7A:  BSF    0A.3
0B7B:  INCF   41,F
0B7C:  GOTO   372
....................  
....................       // Device status 
....................       lcd_putc("\fFAN : "); 
0B7D:  MOVLW  71
0B7E:  BSF    03.6
0B7F:  MOVWF  0D
0B80:  MOVLW  00
0B81:  MOVWF  0F
0B82:  BCF    0A.3
0B83:  BCF    03.6
0B84:  CALL   206
0B85:  BSF    0A.3
....................       if(fan_status) lcd_putc("ON "); else lcd_putc("OFF"); 
0B86:  MOVF   3B,F
0B87:  BTFSC  03.2
0B88:  GOTO   393
0B89:  MOVLW  75
0B8A:  BSF    03.6
0B8B:  MOVWF  0D
0B8C:  MOVLW  00
0B8D:  MOVWF  0F
0B8E:  BCF    0A.3
0B8F:  BCF    03.6
0B90:  CALL   206
0B91:  BSF    0A.3
0B92:  GOTO   39C
0B93:  MOVLW  77
0B94:  BSF    03.6
0B95:  MOVWF  0D
0B96:  MOVLW  00
0B97:  MOVWF  0F
0B98:  BCF    0A.3
0B99:  BCF    03.6
0B9A:  CALL   206
0B9B:  BSF    0A.3
....................  
....................       lcd_gotoxy(1,2); 
0B9C:  MOVLW  01
0B9D:  MOVWF  51
0B9E:  MOVLW  02
0B9F:  MOVWF  52
0BA0:  BCF    0A.3
0BA1:  CALL   1C8
0BA2:  BSF    0A.3
....................       if(servo_angle==90) 
0BA3:  MOVF   21,W
0BA4:  SUBLW  5A
0BA5:  BTFSS  03.2
0BA6:  GOTO   3C8
....................          printf(lcd_putc,"SRV:90%c A ",223); 
0BA7:  MOVLW  79
0BA8:  BSF    03.6
0BA9:  MOVWF  0D
0BAA:  MOVLW  00
0BAB:  MOVWF  0F
0BAC:  BCF    03.0
0BAD:  MOVLW  06
0BAE:  BCF    03.6
0BAF:  MOVWF  43
0BB0:  BCF    0A.3
0BB1:  CALL   4DC
0BB2:  BSF    0A.3
0BB3:  MOVLW  DF
0BB4:  MOVWF  50
0BB5:  BCF    0A.3
0BB6:  CALL   1DA
0BB7:  BSF    0A.3
0BB8:  MOVLW  20
0BB9:  MOVWF  50
0BBA:  BCF    0A.3
0BBB:  CALL   1DA
0BBC:  BSF    0A.3
0BBD:  MOVLW  41
0BBE:  MOVWF  50
0BBF:  BCF    0A.3
0BC0:  CALL   1DA
0BC1:  BSF    0A.3
0BC2:  MOVLW  20
0BC3:  MOVWF  50
0BC4:  BCF    0A.3
0BC5:  CALL   1DA
0BC6:  BSF    0A.3
0BC7:  GOTO   3E8
....................       else 
....................          printf(lcd_putc,"SRV:0%c A ",223); 
0BC8:  MOVLW  7F
0BC9:  BSF    03.6
0BCA:  MOVWF  0D
0BCB:  MOVLW  00
0BCC:  MOVWF  0F
0BCD:  BCF    03.0
0BCE:  MOVLW  05
0BCF:  BCF    03.6
0BD0:  MOVWF  43
0BD1:  BCF    0A.3
0BD2:  CALL   4DC
0BD3:  BSF    0A.3
0BD4:  MOVLW  DF
0BD5:  MOVWF  50
0BD6:  BCF    0A.3
0BD7:  CALL   1DA
0BD8:  BSF    0A.3
0BD9:  MOVLW  20
0BDA:  MOVWF  50
0BDB:  BCF    0A.3
0BDC:  CALL   1DA
0BDD:  BSF    0A.3
0BDE:  MOVLW  41
0BDF:  MOVWF  50
0BE0:  BCF    0A.3
0BE1:  CALL   1DA
0BE2:  BSF    0A.3
0BE3:  MOVLW  20
0BE4:  MOVWF  50
0BE5:  BCF    0A.3
0BE6:  CALL   1DA
0BE7:  BSF    0A.3
....................  
....................       if(buzzer_status) 
0BE8:  MOVF   3D,F
0BE9:  BTFSC  03.2
0BEA:  GOTO   3F5
....................          lcd_putc("BZ:ON"); 
0BEB:  MOVLW  85
0BEC:  BSF    03.6
0BED:  MOVWF  0D
0BEE:  MOVLW  00
0BEF:  MOVWF  0F
0BF0:  BCF    0A.3
0BF1:  BCF    03.6
0BF2:  CALL   206
0BF3:  BSF    0A.3
0BF4:  GOTO   3FE
....................       else 
....................          lcd_putc("BZ:OFF"); 
0BF5:  MOVLW  88
0BF6:  BSF    03.6
0BF7:  MOVWF  0D
0BF8:  MOVLW  00
0BF9:  MOVWF  0F
0BFA:  BCF    0A.3
0BFB:  BCF    03.6
0BFC:  CALL   206
0BFD:  BSF    0A.3
....................       for(int m=0;m<30;m++) servo_set_angle(servo_angle); 
0BFE:  CLRF   42
0BFF:  MOVF   42,W
0C00:  SUBLW  1D
0C01:  BTFSS  03.0
0C02:  GOTO   40A
0C03:  MOVF   21,W
0C04:  MOVWF  43
0C05:  BCF    0A.3
0C06:  CALL   65F
0C07:  BSF    0A.3
0C08:  INCF   42,F
0C09:  GOTO   3FF
....................        
....................            // ---- Send data to ESP8266 via UART ---- 
....................       printf("PM25:%lu,", pm25); 
0C0A:  MOVLW  8C
0C0B:  BSF    03.6
0C0C:  MOVWF  0D
0C0D:  MOVLW  00
0C0E:  MOVWF  0F
0C0F:  BCF    03.0
0C10:  MOVLW  05
0C11:  BCF    03.6
0C12:  MOVWF  44
0C13:  BCF    0A.3
0C14:  CALL   72B
0C15:  BSF    0A.3
0C16:  MOVLW  10
0C17:  MOVWF  04
0C18:  MOVF   25,W
0C19:  MOVWF  44
0C1A:  MOVF   24,W
0C1B:  MOVWF  43
0C1C:  BCF    0A.3
0C1D:  CALL   781
0C1E:  BSF    0A.3
0C1F:  MOVLW  2C
0C20:  BTFSS  0C.4
0C21:  GOTO   420
0C22:  MOVWF  19
....................       printf("MQ135:%lu,", mq135); 
0C23:  MOVLW  91
0C24:  BSF    03.6
0C25:  MOVWF  0D
0C26:  MOVLW  00
0C27:  MOVWF  0F
0C28:  BCF    03.0
0C29:  MOVLW  06
0C2A:  BCF    03.6
0C2B:  MOVWF  44
0C2C:  BCF    0A.3
0C2D:  CALL   72B
0C2E:  BSF    0A.3
0C2F:  MOVLW  10
0C30:  MOVWF  04
0C31:  MOVF   23,W
0C32:  MOVWF  44
0C33:  MOVF   22,W
0C34:  MOVWF  43
0C35:  BCF    0A.3
0C36:  CALL   781
0C37:  BSF    0A.3
0C38:  MOVLW  2C
0C39:  BTFSS  0C.4
0C3A:  GOTO   439
0C3B:  MOVWF  19
....................       printf("TEMP:%u.%u,", T_int, T_dec); 
0C3C:  MOVLW  97
0C3D:  BSF    03.6
0C3E:  MOVWF  0D
0C3F:  MOVLW  00
0C40:  MOVWF  0F
0C41:  BCF    03.0
0C42:  MOVLW  05
0C43:  BCF    03.6
0C44:  MOVWF  44
0C45:  BCF    0A.3
0C46:  CALL   72B
0C47:  BSF    0A.3
0C48:  MOVF   39,W
0C49:  MOVWF  43
0C4A:  MOVLW  1B
0C4B:  MOVWF  44
0C4C:  CALL   000
0C4D:  MOVLW  2E
0C4E:  BTFSS  0C.4
0C4F:  GOTO   44E
0C50:  MOVWF  19
0C51:  MOVF   3A,W
0C52:  MOVWF  43
0C53:  MOVLW  1B
0C54:  MOVWF  44
0C55:  CALL   000
0C56:  MOVLW  2C
0C57:  BTFSS  0C.4
0C58:  GOTO   457
0C59:  MOVWF  19
....................       printf("HUMI:%u.%u,", RH_int, RH_dec); 
0C5A:  MOVLW  9D
0C5B:  BSF    03.6
0C5C:  MOVWF  0D
0C5D:  MOVLW  00
0C5E:  MOVWF  0F
0C5F:  BCF    03.0
0C60:  MOVLW  05
0C61:  BCF    03.6
0C62:  MOVWF  44
0C63:  BCF    0A.3
0C64:  CALL   72B
0C65:  BSF    0A.3
0C66:  MOVF   37,W
0C67:  MOVWF  43
0C68:  MOVLW  1B
0C69:  MOVWF  44
0C6A:  CALL   000
0C6B:  MOVLW  2E
0C6C:  BTFSS  0C.4
0C6D:  GOTO   46C
0C6E:  MOVWF  19
0C6F:  MOVF   38,W
0C70:  MOVWF  43
0C71:  MOVLW  1B
0C72:  MOVWF  44
0C73:  CALL   000
0C74:  MOVLW  2C
0C75:  BTFSS  0C.4
0C76:  GOTO   475
0C77:  MOVWF  19
....................       printf("FAN:%d,", fan_status); 
0C78:  MOVLW  A3
0C79:  BSF    03.6
0C7A:  MOVWF  0D
0C7B:  MOVLW  00
0C7C:  MOVWF  0F
0C7D:  BCF    03.0
0C7E:  MOVLW  04
0C7F:  BCF    03.6
0C80:  MOVWF  44
0C81:  BCF    0A.3
0C82:  CALL   72B
0C83:  BSF    0A.3
0C84:  MOVF   3B,W
0C85:  MOVWF  44
0C86:  MOVLW  18
0C87:  MOVWF  45
0C88:  CALL   03C
0C89:  MOVLW  2C
0C8A:  BTFSS  0C.4
0C8B:  GOTO   48A
0C8C:  MOVWF  19
....................       printf("SWITCH:%d,", !SWITCH1);   // manual control switch 
0C8D:  MOVLW  00
0C8E:  BTFSS  08.1
0C8F:  MOVLW  01
0C90:  MOVWF  43
0C91:  MOVLW  A7
0C92:  BSF    03.6
0C93:  MOVWF  0D
0C94:  MOVLW  00
0C95:  MOVWF  0F
0C96:  BCF    03.0
0C97:  MOVLW  07
0C98:  BCF    03.6
0C99:  MOVWF  44
0C9A:  BCF    0A.3
0C9B:  CALL   72B
0C9C:  BSF    0A.3
0C9D:  MOVF   43,W
0C9E:  MOVWF  44
0C9F:  MOVLW  18
0CA0:  MOVWF  45
0CA1:  CALL   03C
0CA2:  MOVLW  2C
0CA3:  BTFSS  0C.4
0CA4:  GOTO   4A3
0CA5:  MOVWF  19
....................       printf("SERVO:%d,", servo_angle); 
0CA6:  MOVLW  AD
0CA7:  BSF    03.6
0CA8:  MOVWF  0D
0CA9:  MOVLW  00
0CAA:  MOVWF  0F
0CAB:  BCF    03.0
0CAC:  MOVLW  06
0CAD:  BCF    03.6
0CAE:  MOVWF  44
0CAF:  BCF    0A.3
0CB0:  CALL   72B
0CB1:  BSF    0A.3
0CB2:  MOVF   21,W
0CB3:  MOVWF  44
0CB4:  MOVLW  18
0CB5:  MOVWF  45
0CB6:  CALL   03C
0CB7:  MOVLW  2C
0CB8:  BTFSS  0C.4
0CB9:  GOTO   4B8
0CBA:  MOVWF  19
....................       printf("BUZZER:%d\n", buzzer_status);  // end line 
0CBB:  MOVLW  B2
0CBC:  BSF    03.6
0CBD:  MOVWF  0D
0CBE:  MOVLW  00
0CBF:  MOVWF  0F
0CC0:  BCF    03.0
0CC1:  MOVLW  07
0CC2:  BCF    03.6
0CC3:  MOVWF  44
0CC4:  BCF    0A.3
0CC5:  CALL   72B
0CC6:  BSF    0A.3
0CC7:  MOVF   3D,W
0CC8:  MOVWF  44
0CC9:  MOVLW  18
0CCA:  MOVWF  45
0CCB:  CALL   03C
0CCC:  MOVLW  0A
0CCD:  BTFSS  0C.4
0CCE:  GOTO   4CD
0CCF:  MOVWF  19
0CD0:  GOTO   11D
....................  
....................    } 
.................... } 
....................  
0CD1:  SLEEP
.................... // ------------------- DHT11 Functions ------------------- 
.................... short dht11_read_data(unsigned int8 *data) { 
....................    unsigned int8 i; 
....................    dht11_start(); 
....................    if(!dht11_check_response()) 
*
03FD:  MOVF   78,F
03FE:  BTFSS  03.2
03FF:  GOTO   403
....................       return 0; 
0400:  MOVLW  00
0401:  MOVWF  78
0402:  GOTO   476
....................    for(i=0; i<5; i++) data[i] = dht11_read_byte(); 
0403:  CLRF   45
0404:  MOVF   45,W
0405:  SUBLW  04
0406:  BTFSS  03.0
0407:  GOTO   447
0408:  MOVF   45,W
0409:  ADDWF  43,W
040A:  MOVWF  78
040B:  MOVF   44,W
040C:  MOVWF  7A
040D:  BTFSC  03.0
040E:  INCF   7A,F
040F:  MOVF   78,W
0410:  MOVWF  46
0411:  MOVF   7A,W
0412:  MOVWF  47
*
043E:  MOVF   46,W
043F:  MOVWF  04
0440:  BCF    03.7
0441:  BTFSC  47.0
0442:  BSF    03.7
0443:  MOVF   78,W
0444:  MOVWF  00
0445:  INCF   45,F
0446:  GOTO   404
....................    if(data[4] != ((data[0]+data[1]+data[2]+data[3]) & 0xFF)) 
0447:  MOVLW  04
0448:  ADDWF  43,W
0449:  MOVWF  04
044A:  BCF    03.7
044B:  BTFSC  44.0
044C:  BSF    03.7
044D:  MOVF   00,W
044E:  MOVWF  46
044F:  MOVF   43,W
0450:  MOVWF  04
0451:  BCF    03.7
0452:  BTFSC  44.0
0453:  BSF    03.7
0454:  MOVF   00,W
0455:  MOVWF  47
0456:  MOVLW  01
0457:  ADDWF  43,W
0458:  MOVWF  04
0459:  BCF    03.7
045A:  BTFSC  44.0
045B:  BSF    03.7
045C:  MOVF   00,W
045D:  ADDWF  47,F
045E:  MOVLW  02
045F:  ADDWF  43,W
0460:  MOVWF  04
0461:  BCF    03.7
0462:  BTFSC  44.0
0463:  BSF    03.7
0464:  MOVF   00,W
0465:  ADDWF  47,F
0466:  MOVLW  03
0467:  ADDWF  43,W
0468:  MOVWF  04
0469:  BCF    03.7
046A:  BTFSC  44.0
046B:  BSF    03.7
046C:  MOVF   00,W
046D:  ADDWF  47,W
046E:  SUBWF  46,W
046F:  BTFSC  03.2
0470:  GOTO   474
....................       return 0; 
0471:  MOVLW  00
0472:  MOVWF  78
0473:  GOTO   476
....................    return 1; 
0474:  MOVLW  01
0475:  MOVWF  78
0476:  BSF    0A.3
0477:  BCF    0A.4
0478:  GOTO   1F8 (RETURN)
.................... } 
....................  
.................... void dht11_start() { 
....................    output_drive(DHT11_PIN); 
*
03BC:  BCF    20.0
03BD:  MOVF   20,W
03BE:  BSF    03.5
03BF:  MOVWF  07
....................    output_low(DHT11_PIN); 
03C0:  BCF    03.5
03C1:  BCF    20.0
03C2:  MOVF   20,W
03C3:  BSF    03.5
03C4:  MOVWF  07
03C5:  BCF    03.5
03C6:  BCF    07.0
....................    delay_ms(20); 
03C7:  MOVLW  14
03C8:  MOVWF  51
03C9:  CALL   0B8
....................    output_high(DHT11_PIN); 
03CA:  BCF    20.0
03CB:  MOVF   20,W
03CC:  BSF    03.5
03CD:  MOVWF  07
03CE:  BCF    03.5
03CF:  BSF    07.0
....................    delay_us(30); 
03D0:  MOVLW  31
03D1:  MOVWF  77
03D2:  DECFSZ 77,F
03D3:  GOTO   3D2
03D4:  GOTO   3D5
....................    set_tris_c(0x01);   // RC0 input 
03D5:  MOVLW  01
03D6:  BSF    03.5
03D7:  MOVWF  07
03D8:  BCF    03.5
03D9:  MOVWF  20
.................... } 
....................  
.................... int1 dht11_check_response() { 
....................    delay_us(40); 
03DA:  MOVLW  42
03DB:  MOVWF  77
03DC:  DECFSZ 77,F
03DD:  GOTO   3DC
03DE:  NOP
....................    if(!input(DHT11_PIN)) { 
03DF:  BSF    20.0
03E0:  MOVF   20,W
03E1:  BSF    03.5
03E2:  MOVWF  07
03E3:  BCF    03.5
03E4:  BTFSC  07.0
03E5:  GOTO   3FB
....................       delay_us(80); 
03E6:  MOVLW  84
03E7:  MOVWF  77
03E8:  DECFSZ 77,F
03E9:  GOTO   3E8
03EA:  GOTO   3EB
03EB:  NOP
....................       if(input(DHT11_PIN)) { 
03EC:  BSF    20.0
03ED:  MOVF   20,W
03EE:  BSF    03.5
03EF:  MOVWF  07
03F0:  BCF    03.5
03F1:  BTFSS  07.0
03F2:  GOTO   3FB
....................          delay_us(40); 
03F3:  MOVLW  42
03F4:  MOVWF  77
03F5:  DECFSZ 77,F
03F6:  GOTO   3F5
03F7:  NOP
....................          return 1; 
03F8:  MOVLW  01
03F9:  MOVWF  78
03FA:  GOTO   3FD
....................       } 
....................    } 
....................    return 0; 
03FB:  MOVLW  00
03FC:  MOVWF  78
.................... } 
....................  
.................... unsigned int8 dht11_read_byte() { 
*
0413:  CLRF   49
....................    unsigned int8 i, data=0; 
....................    for(i=0; i<8; i++) { 
0414:  CLRF   48
0415:  MOVF   48,W
0416:  SUBLW  07
0417:  BTFSS  03.0
0418:  GOTO   43C
....................       while(!input(DHT11_PIN)); 
0419:  BSF    20.0
041A:  MOVF   20,W
041B:  BSF    03.5
041C:  MOVWF  07
041D:  BCF    03.5
041E:  BTFSS  07.0
041F:  GOTO   419
....................       delay_us(30); 
0420:  MOVLW  31
0421:  MOVWF  77
0422:  DECFSZ 77,F
0423:  GOTO   422
0424:  GOTO   425
....................       if(input(DHT11_PIN)) 
0425:  BSF    20.0
0426:  MOVF   20,W
0427:  BSF    03.5
0428:  MOVWF  07
0429:  BCF    03.5
042A:  BTFSS  07.0
042B:  GOTO   431
....................          data = (data<<1) | 1; 
042C:  BCF    03.0
042D:  RLF    49,W
042E:  IORLW  01
042F:  MOVWF  49
0430:  GOTO   433
....................       else 
....................          data = (data<<1); 
0431:  BCF    03.0
0432:  RLF    49,F
....................       while(input(DHT11_PIN)); 
0433:  BSF    20.0
0434:  MOVF   20,W
0435:  BSF    03.5
0436:  MOVWF  07
0437:  BCF    03.5
0438:  BTFSC  07.0
0439:  GOTO   433
043A:  INCF   48,F
043B:  GOTO   415
....................    } 
....................    return data; 
043C:  MOVF   49,W
043D:  MOVWF  78
.................... } 

Configuration Fuses:
   Word  1: 3F32   HS NOWDT PUT NOBROWNOUT NOLVP NOCPD NOWRT NODEBUG NOPROTECT
